	.file	"kernel_final.c"
	.text
.Ltext0:
	.section	.text.unlikely,"ax",@progbits
.LCOLDB2:
	.text
.LHOTB2:
	.p2align 4,,15
	.section	.text.unlikely
.Ltext_cold0:
	.text
	.globl	idle_thread
	.type	idle_thread, @function
idle_thread:
.LFB500:
	.file 1 "/home/axjllt/Desktop/ori_refos/kernel/src/arch/x86/idle.c"
	.loc 1 17 0
	.cfi_startproc
	.p2align 4,,10
	.p2align 3
.L2:
	.loc 1 19 0 discriminator 1
#APP
# 19 "/home/axjllt/Desktop/ori_refos/kernel/src/arch/x86/idle.c" 1
	hlt
# 0 "" 2
#NO_APP
	jmp	.L2
	.cfi_endproc
.LFE500:
	.size	idle_thread, .-idle_thread
	.section	.text.unlikely
.LCOLDE2:
	.text
.LHOTE2:
	.section	.boot.text,"ax",@progbits
.LCOLDB3:
.LHOTB3:
	.p2align 4,,15
	.type	merge_regions, @function
merge_regions:
.LFB507:
	.file 2 "/home/axjllt/Desktop/ori_refos/kernel/src/arch/x86/kernel/boot.c"
	.loc 2 85 0
	.cfi_startproc
.LVL0:
	movl	allocated_p_regions+264, %edx
	pushl	%edi
	.cfi_def_cfa_offset 8
	.cfi_offset 7, -8
	.loc 2 88 0
	movl	$1, %ecx
	.loc 2 85 0
	pushl	%esi
	.cfi_def_cfa_offset 12
	.cfi_offset 6, -12
	pushl	%ebx
	.cfi_def_cfa_offset 16
	.cfi_offset 3, -16
.LVL1:
.L4:
	.loc 2 88 0 discriminator 1
	cmpl	%edx, %ecx
	jnb	.L14
.L10:
	.loc 2 89 0
	leal	-1(%ecx), %eax
	movl	allocated_p_regions(,%ecx,8), %ebx
	cmpl	%ebx, allocated_p_regions+4(,%eax,8)
	je	.L15
	.loc 2 100 0
	addl	$1, %ecx
.LVL2:
	.loc 2 88 0
	cmpl	%edx, %ecx
	jb	.L10
.L14:
	.loc 2 103 0
	popl	%ebx
	.cfi_remember_state
	.cfi_restore 3
	.cfi_def_cfa_offset 12
	popl	%esi
	.cfi_restore 6
	.cfi_def_cfa_offset 8
	popl	%edi
	.cfi_restore 7
	.cfi_def_cfa_offset 4
	ret
	.p2align 4,,10
	.p2align 3
.L15:
	.cfi_restore_state
	.loc 2 91 0
	movl	allocated_p_regions+4(,%ecx,8), %ebx
	movl	%ebx, allocated_p_regions+4(,%eax,8)
.LVL3:
	.loc 2 93 0
	leal	-1(%edx), %ebx
	leal	allocated_p_regions+8(,%ecx,8), %eax
	leal	allocated_p_regions(,%edx,8), %edx
	cmpl	%ebx, %ecx
	jnb	.L9
.LVL4:
	.p2align 4,,10
	.p2align 3
.L8:
	.loc 2 94 0 discriminator 3
	movl	(%eax), %esi
	addl	$8, %eax
	movl	-4(%eax), %edi
	movl	%esi, -16(%eax)
	movl	%edi, -12(%eax)
	.loc 2 93 0 discriminator 3
	cmpl	%edx, %eax
	jne	.L8
.L9:
	.loc 2 96 0
	movl	%ebx, allocated_p_regions+264
	.loc 2 93 0
	movl	%ebx, %edx
	jmp	.L4
	.cfi_endproc
.LFE507:
	.size	merge_regions, .-merge_regions
.LCOLDE3:
.LHOTE3:
	.section	.text.unlikely
.LCOLDB4:
	.text
.LHOTB4:
	.p2align 4,,15
	.type	lookupIOPTSlot_resolve_levels, @function
lookupIOPTSlot_resolve_levels:
.LFB609:
	.file 3 "/home/axjllt/Desktop/ori_refos/kernel/src/arch/x86/object/iospace.c"
	.loc 3 85 0
	.cfi_startproc
.LVL5:
	pushl	%edi
	.cfi_def_cfa_offset 8
	.cfi_offset 7, -8
	pushl	%esi
	.cfi_def_cfa_offset 12
	.cfi_offset 6, -12
	pushl	%ebx
	.cfi_def_cfa_offset 16
	.cfi_offset 3, -16
	.loc 3 85 0
	movl	%eax, %ebx
	movl	20(%esp), %esi
	.loc 3 92 0
	testl	%edx, %edx
	je	.L23
	.loc 3 100 0
	movl	%esi, %eax
.LVL6:
	subl	16(%esp), %eax
	movl	%ecx, %edi
.LVL7:
	addl	x86KSnumIOPTLevels, %eax
	leal	-9(%eax,%eax,8), %ecx
.LVL8:
	movl	%edi, %eax
	shrl	%cl, %eax
	andl	$511, %eax
	leal	(%edx,%eax,8), %eax
.LVL9:
	movl	(%eax), %edx
.LVL10:
	.loc 3 102 0
	testb	$2, %dl
	je	.L21
	testl	%esi, %esi
	je	.L21
.LVL11:
	.loc 3 109 0
	subl	$8, %esp
	.cfi_def_cfa_offset 24
	subl	$1, %esi
	andl	$-4096, %edx
	pushl	%esi
	.cfi_def_cfa_offset 28
	movl	%ebx, %eax
	movl	%edi, %ecx
.LVL12:
	subl	$536870912, %edx
	pushl	28(%esp)
	.cfi_def_cfa_offset 32
	call	lookupIOPTSlot_resolve_levels
.LVL13:
	addl	$16, %esp
	.cfi_def_cfa_offset 16
.LVL14:
	.loc 3 110 0
	movl	%ebx, %eax
	popl	%ebx
	.cfi_remember_state
	.cfi_restore 3
	.cfi_def_cfa_offset 12
.LVL15:
	popl	%esi
	.cfi_restore 6
	.cfi_def_cfa_offset 8
	popl	%edi
	.cfi_restore 7
	.cfi_def_cfa_offset 4
.LVL16:
	ret
.LVL17:
	.p2align 4,,10
	.p2align 3
.L21:
	.cfi_restore_state
	.loc 3 106 0
	movl	%eax, 4(%ebx)
	.loc 3 110 0
	movl	%ebx, %eax
	.loc 3 106 0
	movl	%esi, 8(%ebx)
	movl	$0, (%ebx)
	.loc 3 110 0
	popl	%ebx
	.cfi_remember_state
	.cfi_restore 3
	.cfi_def_cfa_offset 12
.LVL18:
	popl	%esi
	.cfi_restore 6
	.cfi_def_cfa_offset 8
.LVL19:
	popl	%edi
	.cfi_restore 7
	.cfi_def_cfa_offset 4
.LVL20:
	ret
.LVL21:
	.p2align 4,,10
	.p2align 3
.L23:
	.cfi_restore_state
	.loc 3 96 0
	movl	$2, (%eax)
	movl	$0, 4(%eax)
	movl	%esi, 8(%eax)
	.loc 3 110 0
	movl	%ebx, %eax
.LVL22:
	popl	%ebx
	.cfi_restore 3
	.cfi_def_cfa_offset 12
.LVL23:
	popl	%esi
	.cfi_restore 6
	.cfi_def_cfa_offset 8
.LVL24:
	popl	%edi
	.cfi_restore 7
	.cfi_def_cfa_offset 4
	ret
	.cfi_endproc
.LFE609:
	.size	lookupIOPTSlot_resolve_levels, .-lookupIOPTSlot_resolve_levels
	.section	.text.unlikely
.LCOLDE4:
	.text
.LHOTE4:
	.section	.text.unlikely
.LCOLDB5:
	.text
.LHOTB5:
	.p2align 4,,15
	.type	pic_get_isr, @function
pic_get_isr:
.LFB882:
	.file 4 "/home/axjllt/Desktop/ori_refos/kernel/src/plat/pc99/machine/pic.c"
	.loc 4 89 0
	.cfi_startproc
	pushl	%ebx
	.cfi_def_cfa_offset 8
	.cfi_offset 3, -8
	subl	$16, %esp
	.cfi_def_cfa_offset 24
	.loc 4 90 0
	pushl	$11
	.cfi_def_cfa_offset 28
	pushl	$32
	.cfi_def_cfa_offset 32
	call	out8
.LVL25:
	.loc 4 91 0
	popl	%eax
	.cfi_def_cfa_offset 28
	popl	%edx
	.cfi_def_cfa_offset 24
	pushl	$11
	.cfi_def_cfa_offset 28
	pushl	$160
	.cfi_def_cfa_offset 32
	call	out8
.LVL26:
	.loc 4 92 0
	movl	$160, (%esp)
	call	in8
.LVL27:
	movl	$32, (%esp)
	movl	%eax, %ebx
	call	in8
.LVL28:
	.loc 4 93 0
	addl	$24, %esp
	.cfi_def_cfa_offset 8
	.loc 4 92 0
	movzbl	%al, %edx
	movl	%ebx, %eax
	.loc 4 93 0
	popl	%ebx
	.cfi_restore 3
	.cfi_def_cfa_offset 4
	.loc 4 92 0
	sall	$8, %eax
	orl	%edx, %eax
	.loc 4 93 0
	ret
	.cfi_endproc
.LFE882:
	.size	pic_get_isr, .-pic_get_isr
	.section	.text.unlikely
.LCOLDE5:
	.text
.LHOTE5:
	.section	.text.unlikely
.LCOLDB6:
	.text
.LHOTB6:
	.p2align 4,,15
	.type	Mode_sanitiseRegister.part.55, @function
Mode_sanitiseRegister.part.55:
.LFB950:
	.file 5 "/home/axjllt/Desktop/ori_refos/kernel/src/arch/x86/32/machine/registerset.c"
	.loc 5 46 0
	.cfi_startproc
.LVL29:
	.loc 5 49 0
	movl	%eax, %edx
	andl	$-9, %edx
	.loc 5 50 0
	cmpl	$51, %edx
	movl	$0, %edx
	cmovne	%edx, %eax
.LVL30:
	.loc 5 54 0
	ret
	.cfi_endproc
.LFE950:
	.size	Mode_sanitiseRegister.part.55, .-Mode_sanitiseRegister.part.55
	.section	.text.unlikely
.LCOLDE6:
	.text
.LHOTE6:
	.section	.text.unlikely
.LCOLDB7:
	.text
.LHOTB7:
	.p2align 4,,15
	.type	fpuThreadDelete.part.56, @function
fpuThreadDelete.part.56:
.LFB951:
	.file 6 "/home/axjllt/Desktop/ori_refos/kernel/src/machine/fpu.c"
	.loc 6 68 0
	.cfi_startproc
.LVL31:
.LBB6525:
.LBB6526:
.LBB6527:
.LBB6528:
.LBB6529:
.LBB6530:
.LBB6531:
	.file 7 "/home/axjllt/Desktop/ori_refos/kernel/include/arch/x86/arch/32/mode/machine/cpu_registers.h"
	.loc 7 29 0
#APP
# 29 "/home/axjllt/Desktop/ori_refos/kernel/include/arch/x86/arch/32/mode/machine/cpu_registers.h" 1
	movl %cr0, %eax
# 0 "" 2
.LVL32:
#NO_APP
.LBE6531:
.LBE6530:
.LBB6532:
.LBB6533:
	.loc 7 35 0
	orl	$8, %eax
.LVL33:
#APP
# 35 "/home/axjllt/Desktop/ori_refos/kernel/include/arch/x86/arch/32/mode/machine/cpu_registers.h" 1
	movl %eax, %cr0
# 0 "" 2
.LVL34:
#NO_APP
.LBE6533:
.LBE6532:
.LBE6529:
.LBE6528:
	.loc 6 33 0
	movl	$0, ksActiveFPUState
	ret
.LBE6527:
.LBE6526:
.LBE6525:
	.cfi_endproc
.LFE951:
	.size	fpuThreadDelete.part.56, .-fpuThreadDelete.part.56
	.section	.text.unlikely
.LCOLDE7:
	.text
.LHOTE7:
	.section	.text.unlikely
.LCOLDB8:
	.text
.LHOTB8:
	.p2align 4,,15
	.type	parse_opt.constprop.298, @function
parse_opt.constprop.298:
.LFB1230:
	.file 8 "/home/axjllt/Desktop/ori_refos/kernel/src/arch/x86/kernel/cmdline.c"
	.loc 8 36 0
	.cfi_startproc
.LVL35:
	pushl	%ebp
	.cfi_def_cfa_offset 8
	.cfi_offset 5, -8
	pushl	%edi
	.cfi_def_cfa_offset 12
	.cfi_offset 7, -12
	.loc 8 38 0
	movl	$-1, %edi
	.loc 8 36 0
	pushl	%esi
	.cfi_def_cfa_offset 16
	.cfi_offset 6, -16
	pushl	%ebx
	.cfi_def_cfa_offset 20
	.cfi_offset 3, -20
	subl	$16, %esp
	.cfi_def_cfa_offset 36
	.loc 8 36 0
	movl	%edx, 8(%esp)
	movzbl	(%eax), %edx
.LVL36:
	.p2align 4,,10
	.p2align 3
.L32:
	.loc 8 42 0
	cmpb	$32, %dl
	jle	.L33
.L71:
.LVL37:
	.loc 8 47 0
	movl	8(%esp), %ebx
	movzbl	(%ebx), %ecx
	testb	%cl, %cl
	je	.L34
	cmpb	$61, %dl
	je	.L69
	cmpb	%dl, %cl
	jne	.L69
	movl	8(%esp), %ecx
	movl	%edi, 12(%esp)
	movl	%ecx, (%esp)
	jmp	.L43
.LVL38:
	.p2align 4,,10
	.p2align 3
.L40:
	movzbl	1(%eax), %edx
	movl	%esi, %eax
	cmpb	$61, %dl
	setne	%cl
	cmpb	$32, %dl
	movl	%ecx, %ebp
	setg	%cl
	movl	%ecx, %edi
.LVL39:
	movl	%ebp, %ecx
	movl	%edi, %ebx
	testb	%bl, %cl
	je	.L67
.LVL40:
	cmpb	%dl, 7(%esp)
	jne	.L67
.L43:
	addl	$1, (%esp)
.LVL41:
	movl	(%esp), %edi
.LVL42:
	leal	1(%eax), %esi
.LVL43:
	movzbl	(%edi), %ebx
	movb	%bl, 7(%esp)
	testb	%bl, %bl
	jne	.L40
	movzbl	1(%eax), %edx
	movl	12(%esp), %edi
.LVL44:
	.loc 8 49 0
	cmpb	$61, %dl
	je	.L41
.LVL45:
.L42:
	.loc 8 59 0
	cmpb	$32, %dl
	jle	.L51
.L37:
	.loc 8 49 0
	movl	%esi, %eax
.LVL46:
	.p2align 4,,10
	.p2align 3
.L49:
	.loc 8 59 0
	addl	$1, %eax
.LVL47:
	movzbl	(%eax), %edx
	cmpb	$32, %dl
	jg	.L49
	.loc 8 42 0
	cmpb	$32, %dl
	jg	.L71
.L33:
	testb	%dl, %dl
	jne	.L38
	.loc 8 63 0
	addl	$16, %esp
	.cfi_remember_state
	.cfi_def_cfa_offset 20
	movl	%edi, %eax
.LVL48:
	popl	%ebx
	.cfi_restore 3
	.cfi_def_cfa_offset 16
	popl	%esi
	.cfi_restore 6
	.cfi_def_cfa_offset 12
	popl	%edi
	.cfi_restore 7
	.cfi_def_cfa_offset 8
.LVL49:
	popl	%ebp
	.cfi_restore 5
	.cfi_def_cfa_offset 4
	ret
.LVL50:
.L51:
	.cfi_restore_state
	.loc 8 59 0
	movl	%esi, %eax
	jmp	.L32
.LVL51:
	.p2align 4,,10
	.p2align 3
.L38:
	movzbl	1(%eax), %edx
	.loc 8 42 0
	addl	$1, %eax
.LVL52:
	jmp	.L32
.LVL53:
	.p2align 4,,10
	.p2align 3
.L67:
	movl	12(%esp), %edi
	jmp	.L42
.LVL54:
.L52:
	.loc 8 49 0
	movl	%eax, %esi
.LVL55:
	.p2align 4,,10
	.p2align 3
.L41:
	.loc 8 52 0
	movzbl	1(%esi), %edx
	.loc 8 50 0
	leal	1(%esi), %eax
.LVL56:
	.loc 8 52 0
	cmpb	$32, %dl
	jle	.L50
	xorl	%edi, %edi
	jmp	.L47
.LVL57:
	.p2align 4,,10
	.p2align 3
.L46:
	cmpl	$999, %edi
	je	.L72
.LVL58:
.L47:
	addl	$1, %eax
.LVL59:
	.loc 8 53 0
	movb	%dl, cmdline_val(%edi)
	.loc 8 52 0
	addl	$1, %edi
.LVL60:
	movzbl	(%eax), %edx
	cmpb	$32, %dl
	jg	.L46
	leal	cmdline_val(%edi), %edx
.LVL61:
.L45:
	.loc 8 56 0
	movb	$0, (%edx)
	movl	%eax, %esi
	movzbl	(%eax), %edx
	jmp	.L42
.LVL62:
.L72:
	.loc 8 52 0
	movl	$cmdline_val+999, %edx
	jmp	.L45
.LVL63:
.L50:
	movl	$cmdline_val, %edx
	xorl	%edi, %edi
	jmp	.L45
.LVL64:
.L34:
	.loc 8 49 0
	cmpb	$61, %dl
	je	.L52
.L69:
	movl	%eax, %esi
	jmp	.L37
	.cfi_endproc
.LFE1230:
	.size	parse_opt.constprop.298, .-parse_opt.constprop.298
	.section	.text.unlikely
.LCOLDE8:
	.text
.LHOTE8:
	.section	.boot.text
.LCOLDB9:
.LHOTB9:
	.p2align 4,,15
	.globl	x2apic_is_enabled
	.type	x2apic_is_enabled, @function
x2apic_is_enabled:
.LFB561:
	.file 9 "/home/axjllt/Desktop/ori_refos/kernel/src/arch/x86/kernel/x2apic.c"
	.loc 9 18 0
	.cfi_startproc
.LVL65:
	pushl	%esi
	.cfi_def_cfa_offset 8
	.cfi_offset 6, -8
.LBB6534:
.LBB6535:
.LBB6536:
.LBB6537:
	.file 10 "/home/axjllt/Desktop/ori_refos/kernel/include/arch/x86/arch/machine.h"
	.loc 10 101 0
	movl	$27, %ecx
.LBE6537:
.LBE6536:
.LBE6535:
.LBE6534:
	.loc 9 18 0
	pushl	%ebx
	.cfi_def_cfa_offset 12
	.cfi_offset 3, -12
.LBB6544:
.LBB6542:
.LBB6540:
.LBB6538:
	.loc 10 101 0
#APP
# 101 "/home/axjllt/Desktop/ori_refos/kernel/include/arch/x86/arch/machine.h" 1
	rdmsr
# 0 "" 2
#NO_APP
.LBE6538:
.LBE6540:
.LBE6542:
.LBE6544:
.LBB6545:
.LBB6546:
	.loc 10 160 0
	xorl	%ecx, %ecx
.LBE6546:
.LBE6545:
.LBB6548:
.LBB6543:
.LBB6541:
.LBB6539:
	.loc 10 101 0
	movl	%eax, %esi
.LVL66:
.LBE6539:
.LBE6541:
.LBE6543:
.LBE6548:
.LBB6549:
.LBB6547:
	.loc 10 160 0
	movl	$1, %eax
#APP
# 160 "/home/axjllt/Desktop/ori_refos/kernel/include/arch/x86/arch/machine.h" 1
	cpuid
# 0 "" 2
.LVL67:
#NO_APP
.LBE6547:
.LBE6549:
	.loc 9 22 0
	movl	%ecx, %eax
	andl	$2097152, %eax
	je	.L74
.LVL68:
	.loc 9 27 0 discriminator 1
	xorl	%eax, %eax
	.loc 9 22 0 discriminator 1
	testl	$2048, %esi
	je	.L74
.LVL69:
.LBB6550:
.LBB6551:
	.file 11 "./arch/object/structures_gen.h"
	.loc 11 479 0
	andl	$1024, %esi
.LBE6551:
.LBE6550:
	.loc 9 25 0
	movl	%esi, %eax
	shrl	$10, %eax
.L74:
	.loc 9 28 0
	popl	%ebx
	.cfi_restore 3
	.cfi_def_cfa_offset 8
	popl	%esi
	.cfi_restore 6
	.cfi_def_cfa_offset 4
	ret
	.cfi_endproc
.LFE561:
	.size	x2apic_is_enabled, .-x2apic_is_enabled
.LCOLDE9:
.LHOTE9:
.LCOLDB10:
.LHOTB10:
	.p2align 4,,15
	.globl	apic_get_base_paddr
	.type	apic_get_base_paddr, @function
apic_get_base_paddr:
.LFB503:
	.file 12 "/home/axjllt/Desktop/ori_refos/kernel/src/arch/x86/kernel/apic.c"
	.loc 12 39 0
	.cfi_startproc
.LVL70:
.LBB6552:
.LBB6553:
.LBB6554:
.LBB6555:
	.loc 10 101 0
	movl	$27, %ecx
#APP
# 101 "/home/axjllt/Desktop/ori_refos/kernel/include/arch/x86/arch/machine.h" 1
	rdmsr
# 0 "" 2
.LVL71:
#NO_APP
.LBE6555:
.LBE6554:
.LBE6553:
.LBE6552:
	.loc 12 43 0
	andl	$-4096, %eax
	.loc 12 44 0
	ret
	.cfi_endproc
.LFE503:
	.size	apic_get_base_paddr, .-apic_get_base_paddr
.LCOLDE10:
.LHOTE10:
.LCOLDB11:
.LHOTB11:
	.p2align 4,,15
	.globl	elf_checkFile
	.type	elf_checkFile, @function
elf_checkFile:
.LFB429:
	.file 13 "/home/axjllt/Desktop/ori_refos/kernel/src/arch/x86/32/kernel/elf.c"
	.loc 13 20 0
	.cfi_startproc
.LVL72:
	.loc 13 20 0
	movl	4(%esp), %edx
	xorl	%eax, %eax
	.loc 13 25 0
	cmpl	$1179403647, (%edx)
	je	.L85
	.loc 13 28 0
	ret
	.p2align 4,,10
	.p2align 3
.L85:
	xorl	%eax, %eax
	cmpb	$1, 4(%edx)
	sete	%al
	.loc 13 28 0 is_stmt 0 discriminator 1
	ret
	.cfi_endproc
.LFE429:
	.size	elf_checkFile, .-elf_checkFile
.LCOLDE11:
.LHOTE11:
.LCOLDB12:
.LHOTB12:
	.p2align 4,,15
	.globl	elf_getMemoryBounds
	.type	elf_getMemoryBounds, @function
elf_getMemoryBounds:
.LFB430:
	.loc 13 32 0 is_stmt 1
	.cfi_startproc
.LVL73:
	pushl	%ebp
	.cfi_def_cfa_offset 8
	.cfi_offset 5, -8
	pushl	%edi
	.cfi_def_cfa_offset 12
	.cfi_offset 7, -12
	pushl	%esi
	.cfi_def_cfa_offset 16
	.cfi_offset 6, -16
	pushl	%ebx
	.cfi_def_cfa_offset 20
	.cfi_offset 3, -20
	.loc 13 32 0
	movl	24(%esp), %ecx
	movl	20(%esp), %eax
	.loc 13 33 0
	movl	28(%ecx), %edx
	.loc 13 43 0
	movzwl	44(%ecx), %ebp
	.loc 13 33 0
	addl	%ecx, %edx
.LVL74:
	.loc 13 43 0
	testl	%ebp, %ebp
	je	.L90
	sall	$5, %ebp
	movl	$-1, %edi
	xorl	%esi, %esi
	addl	%edx, %ebp
.LVL75:
	.p2align 4,,10
	.p2align 3
.L89:
	.loc 13 44 0
	movl	20(%edx), %ecx
	testl	%ecx, %ecx
	je	.L88
	.loc 13 45 0
	movl	8(%edx), %ebx
.LVL76:
	.loc 13 46 0
	addl	%ebx, %ecx
.LVL77:
	cmpl	%ebx, %edi
	cmova	%ebx, %edi
.LVL78:
	cmpl	%ecx, %esi
	cmovb	%ecx, %esi
.LVL79:
.L88:
	addl	$32, %edx
	.loc 13 43 0 discriminator 2
	cmpl	%edx, %ebp
	jne	.L89
.LVL80:
.L87:
	.loc 13 56 0
	movl	%edi, (%eax)
	movl	%esi, 4(%eax)
	.loc 13 57 0
	popl	%ebx
	.cfi_remember_state
	.cfi_restore 3
	.cfi_def_cfa_offset 16
	popl	%esi
	.cfi_restore 6
	.cfi_def_cfa_offset 12
	popl	%edi
	.cfi_restore 7
	.cfi_def_cfa_offset 8
	popl	%ebp
	.cfi_restore 5
	.cfi_def_cfa_offset 4
	ret	$4
.LVL81:
.L90:
	.cfi_restore_state
	.loc 13 39 0
	movl	$-1, %edi
	.loc 13 40 0
	xorl	%esi, %esi
	jmp	.L87
	.cfi_endproc
.LFE430:
	.size	elf_getMemoryBounds, .-elf_getMemoryBounds
.LCOLDE12:
.LHOTE12:
.LCOLDB13:
.LHOTB13:
	.p2align 4,,15
	.globl	Arch_configureIdleThread
	.type	Arch_configureIdleThread, @function
Arch_configureIdleThread:
.LFB433:
	.file 14 "/home/axjllt/Desktop/ori_refos/kernel/src/arch/x86/32/kernel/thread.c"
	.loc 14 27 0
	.cfi_startproc
.LVL82:
	.loc 14 27 0
	movl	4(%esp), %eax
.LVL83:
.LBB6556:
.LBB6557:
	.file 15 "/home/axjllt/Desktop/ori_refos/kernel/include/machine/registerset.h"
	.loc 15 30 0
	movl	$514, 576(%eax)
.LVL84:
.LBE6557:
.LBE6556:
.LBB6558:
.LBB6559:
	movl	$idle_thread, 568(%eax)
.LVL85:
.LBE6559:
.LBE6558:
.LBB6560:
.LBB6561:
	movl	$8, 572(%eax)
.LVL86:
.LBE6561:
.LBE6560:
.LBB6562:
.LBB6563:
	movl	$16, 540(%eax)
.LVL87:
.LBE6563:
.LBE6562:
.LBB6564:
.LBB6565:
	movl	$16, 544(%eax)
.LVL88:
.LBE6565:
.LBE6564:
.LBB6566:
.LBB6567:
	movl	$16, 548(%eax)
.LVL89:
.LBE6567:
.LBE6566:
.LBB6568:
.LBB6569:
	movl	$16, 552(%eax)
.LVL90:
.LBE6569:
.LBE6568:
.LBB6570:
.LBB6571:
	movl	$16, 584(%eax)
.LVL91:
	ret
.LBE6571:
.LBE6570:
	.cfi_endproc
.LFE433:
	.size	Arch_configureIdleThread, .-Arch_configureIdleThread
.LCOLDE13:
.LHOTE13:
	.section	.text.unlikely
.LCOLDB14:
	.text
.LHOTB14:
	.p2align 4,,15
	.globl	Arch_activateIdleThread
	.type	Arch_activateIdleThread, @function
Arch_activateIdleThread:
.LFB435:
	.loc 14 47 0
	.cfi_startproc
.LVL92:
	ret
	.cfi_endproc
.LFE435:
	.size	Arch_activateIdleThread, .-Arch_activateIdleThread
	.section	.text.unlikely
.LCOLDE14:
	.text
.LHOTE14:
	.section	.boot.text
.LCOLDB15:
.LHOTB15:
	.p2align 4,,15
	.globl	init_dtrs
	.type	init_dtrs, @function
init_dtrs:
.LFB449:
	.file 16 "/home/axjllt/Desktop/ori_refos/kernel/src/arch/x86/32/kernel/vspace.c"
	.loc 16 384 0
	.cfi_startproc
	.loc 16 384 0
	subl	$24, %esp
	.cfi_def_cfa_offset 28
	.loc 16 386 0
	movl	$63, %eax
	.loc 16 387 0
	movl	$x86KSgdt, gdt_idt_ptr+2
	.loc 16 388 0
	pushl	$gdt_idt_ptr
	.cfi_def_cfa_offset 32
	.loc 16 386 0
	movw	%ax, gdt_idt_ptr
	.loc 16 388 0
	call	ia32_install_gdt
.LVL93:
	.loc 16 391 0
	movl	$2047, %edx
	.loc 16 393 0
	movl	$gdt_idt_ptr, (%esp)
	.loc 16 391 0
	movw	%dx, gdt_idt_ptr
	.loc 16 392 0
	movl	$x86KSidt, gdt_idt_ptr+2
	.loc 16 393 0
	call	ia32_install_idt
.LVL94:
	.loc 16 396 0
	movl	$0, (%esp)
	call	ia32_install_ldt
.LVL95:
	.loc 16 399 0
	movl	$40, (%esp)
	call	ia32_install_tss
.LVL96:
	.loc 16 405 0
	addl	$28, %esp
	.cfi_def_cfa_offset 4
	ret
	.cfi_endproc
.LFE449:
	.size	init_dtrs, .-init_dtrs
.LCOLDE15:
.LHOTE15:
	.section	.text.unlikely
.LCOLDB16:
	.text
.LHOTB16:
	.p2align 4,,15
	.globl	hwASIDInvalidate
	.type	hwASIDInvalidate, @function
hwASIDInvalidate:
.LFB463:
	.loc 16 660 0
	.cfi_startproc
.LVL97:
	ret
	.cfi_endproc
.LFE463:
	.size	hwASIDInvalidate, .-hwASIDInvalidate
	.section	.text.unlikely
.LCOLDE16:
	.text
.LHOTE16:
	.section	.boot.text
.LCOLDB17:
.LHOTB17:
	.p2align 4,,15
	.globl	get_boot_pd
	.type	get_boot_pd, @function
get_boot_pd:
.LFB467:
	.file 17 "/home/axjllt/Desktop/ori_refos/kernel/src/arch/x86/32/kernel/vspace_32paging.c"
	.loc 17 33 0
	.cfi_startproc
	.loc 17 35 0
	movl	$_boot_pd, %eax
	ret
	.cfi_endproc
.LFE467:
	.size	get_boot_pd, .-get_boot_pd
.LCOLDE17:
.LHOTE17:
	.section	.phys.text,"ax",@progbits
.LCOLDB18:
.LHOTB18:
	.p2align 4,,15
	.globl	init_boot_pd
	.type	init_boot_pd, @function
init_boot_pd:
.LFB469:
	.loc 17 70 0
	.cfi_startproc
.LVL98:
	.loc 17 74 0
	xorl	%eax, %eax
.LVL99:
	.p2align 4,,10
	.p2align 3
.L103:
	.loc 17 75 0 discriminator 3
	movl	%eax, %edx
	sall	$22, %edx
	orl	$387, %edx
	movl	%edx, _boot_pd(,%eax,4)
	.loc 17 74 0 discriminator 3
	addl	$1, %eax
.LVL100:
	cmpl	$896, %eax
	jne	.L103
	xorl	%eax, %eax
.LVL101:
	.p2align 4,,10
	.p2align 3
.L104:
	.loc 17 92 0 discriminator 3
	movl	%eax, %edx
	sall	$22, %edx
	orl	$387, %edx
	movl	%edx, _boot_pd+3584(,%eax,4)
	.loc 17 91 0 discriminator 3
	addl	$1, %eax
.LVL102:
	cmpl	$128, %eax
	jne	.L104
	.loc 17 106 0
	ret
	.cfi_endproc
.LFE469:
	.size	init_boot_pd, .-init_boot_pd
.LCOLDE18:
.LHOTE18:
	.section	.text.unlikely
.LCOLDB19:
	.text
.LHOTB19:
	.p2align 4,,15
	.globl	lookupPDSlot
	.type	lookupPDSlot, @function
lookupPDSlot:
.LFB473:
	.loc 17 166 0
	.cfi_startproc
.LVL103:
	.loc 17 174 0
	movl	12(%esp), %edx
	movl	8(%esp), %ecx
	.loc 17 166 0
	movl	4(%esp), %eax
	.loc 17 174 0
	shrl	$22, %edx
.LVL104:
	leal	(%ecx,%edx,4), %edx
.LVL105:
	movl	$0, (%eax)
	movl	%edx, 4(%eax)
.LVL106:
	.loc 17 175 0
	ret	$4
	.cfi_endproc
.LFE473:
	.size	lookupPDSlot, .-lookupPDSlot
	.section	.text.unlikely
.LCOLDE19:
	.text
.LHOTE19:
	.section	.text.unlikely
.LCOLDB20:
	.text
.LHOTB20:
	.p2align 4,,15
	.globl	isVTableRoot
	.type	isVTableRoot, @function
isVTableRoot:
.LFB474:
	.loc 17 178 0
	.cfi_startproc
.LVL107:
	.loc 17 178 0
	movl	4(%esp), %eax
.LVL108:
.LBB6572:
.LBB6573:
	.loc 11 2202 0
	movl	%eax, %ecx
	.loc 11 2203 0
	movl	%eax, %edx
	movzbl	%al, %eax
.LVL109:
	.loc 11 2202 0
	andl	$14, %ecx
	.loc 11 2203 0
	andl	$15, %edx
.LVL110:
	cmpl	$14, %ecx
.LVL111:
	cmovne	%edx, %eax
.LVL112:
.LBE6573:
.LBE6572:
	.loc 17 179 0
	cmpl	$5, %eax
	sete	%al
	movzbl	%al, %eax
	.loc 17 180 0
	ret
	.cfi_endproc
.LFE474:
	.size	isVTableRoot, .-isVTableRoot
	.section	.text.unlikely
.LCOLDE20:
	.text
.LHOTE20:
	.section	.text.unlikely
.LCOLDB21:
	.text
.LHOTB21:
	.p2align 4,,15
	.globl	copyGlobalMappings
	.type	copyGlobalMappings, @function
copyGlobalMappings:
.LFB477:
	.loc 17 197 0
	.cfi_startproc
.LVL113:
	.loc 17 197 0
	movl	4(%esp), %ecx
.LVL114:
	xorl	%eax, %eax
.LVL115:
	.p2align 4,,10
	.p2align 3
.L112:
	.loc 17 202 0 discriminator 3
	movl	ia32KSGlobalPD+3584(%eax), %edx
	movl	%edx, 3584(%ecx,%eax)
	addl	$4, %eax
	.loc 17 201 0 discriminator 3
	cmpl	$512, %eax
	jne	.L112
	.loc 17 204 0
	ret
	.cfi_endproc
.LFE477:
	.size	copyGlobalMappings, .-copyGlobalMappings
	.section	.text.unlikely
.LCOLDE21:
	.text
.LHOTE21:
	.section	.text.unlikely
.LCOLDB22:
	.text
.LHOTB22:
	.p2align 4,,15
	.globl	Mode_initContext
	.type	Mode_initContext, @function
Mode_initContext:
.LFB484:
	.loc 5 31 0
	.cfi_startproc
.LVL116:
	.loc 5 31 0
	movl	4(%esp), %eax
	.loc 5 32 0
	movl	$0, 512(%eax)
	.loc 5 33 0
	movl	$0, 516(%eax)
	.loc 5 34 0
	movl	$0, 520(%eax)
	.loc 5 35 0
	movl	$0, 524(%eax)
	.loc 5 36 0
	movl	$0, 528(%eax)
	.loc 5 37 0
	movl	$0, 532(%eax)
	.loc 5 38 0
	movl	$0, 536(%eax)
	.loc 5 39 0
	movl	$35, 540(%eax)
	.loc 5 40 0
	movl	$35, 544(%eax)
	.loc 5 41 0
	movl	$59, 548(%eax)
	.loc 5 42 0
	movl	$51, 552(%eax)
	.loc 5 43 0
	movl	$0, 580(%eax)
	ret
	.cfi_endproc
.LFE484:
	.size	Mode_initContext, .-Mode_initContext
	.section	.text.unlikely
.LCOLDE22:
	.text
.LHOTE22:
	.section	.text.unlikely
.LCOLDB23:
	.text
.LHOTB23:
	.p2align 4,,15
	.globl	Mode_sanitiseRegister
	.type	Mode_sanitiseRegister, @function
Mode_sanitiseRegister:
.LFB485:
	.loc 5 47 0
	.cfi_startproc
.LVL117:
	.loc 5 48 0
	movl	4(%esp), %ecx
	.loc 5 47 0
	movl	8(%esp), %eax
	.loc 5 48 0
	leal	-9(%ecx), %edx
	cmpl	$1, %edx
	jbe	.L117
	.loc 5 54 0
	ret
	.p2align 4,,10
	.p2align 3
.L117:
	jmp	Mode_sanitiseRegister.part.55
.LVL118:
	.cfi_endproc
.LFE485:
	.size	Mode_sanitiseRegister, .-Mode_sanitiseRegister
	.section	.text.unlikely
.LCOLDE23:
	.text
.LHOTE23:
	.section	.text.unlikely
.LCOLDB24:
	.text
.LHOTB24:
	.p2align 4,,15
	.globl	Arch_isFrameType
	.type	Arch_isFrameType, @function
Arch_isFrameType:
.LFB486:
	.file 18 "/home/axjllt/Desktop/ori_refos/kernel/src/arch/x86/32/object/objecttype.c"
	.loc 18 29 0
	.cfi_startproc
.LVL119:
	.loc 18 30 0
	movl	4(%esp), %eax
	subl	$5, %eax
	.loc 18 32 0
	cmpl	$1, %eax
	setbe	%al
	movzbl	%al, %eax
	.loc 18 38 0
	ret
	.cfi_endproc
.LFE486:
	.size	Arch_isFrameType, .-Arch_isFrameType
	.section	.text.unlikely
.LCOLDE24:
	.text
.LHOTE24:
	.section	.text.unlikely
.LCOLDB25:
	.text
.LHOTB25:
	.p2align 4,,15
	.globl	Mode_sameRegionAs
	.type	Mode_sameRegionAs, @function
Mode_sameRegionAs:
.LFB489:
	.loc 18 125 0
	.cfi_startproc
.LVL120:
	.loc 18 127 0
	xorl	%eax, %eax
	ret
	.cfi_endproc
.LFE489:
	.size	Mode_sameRegionAs, .-Mode_sameRegionAs
	.section	.text.unlikely
.LCOLDE25:
	.text
.LHOTE25:
	.section	.text.unlikely
.LCOLDB26:
	.text
.LHOTB26:
	.p2align 4,,15
	.globl	apic_ack_active_interrupt
	.type	apic_ack_active_interrupt, @function
apic_ack_active_interrupt:
.LFB505:
	.loc 12 148 0
	.cfi_startproc
.LVL121:
.LBB6574:
.LBB6575:
	.file 19 "/home/axjllt/Desktop/ori_refos/kernel/include/arch/x86/arch/kernel/xapic.h"
	.loc 19 59 0
	movl	$0, -65360
.LVL122:
	ret
.LBE6575:
.LBE6574:
	.cfi_endproc
.LFE505:
	.size	apic_ack_active_interrupt, .-apic_ack_active_interrupt
	.section	.text.unlikely
.LCOLDE26:
	.text
.LHOTE26:
	.section	.boot.text
.LCOLDB27:
.LHOTB27:
	.p2align 4,,15
	.globl	init_allocated_p_regions
	.type	init_allocated_p_regions, @function
init_allocated_p_regions:
.LFB510:
	.loc 2 169 0
	.cfi_startproc
	.loc 2 170 0
	movl	$0, allocated_p_regions+264
	ret
	.cfi_endproc
.LFE510:
	.size	init_allocated_p_regions, .-init_allocated_p_regions
.LCOLDE27:
.LHOTE27:
	.section	.text.unlikely
.LCOLDB28:
	.text
.LHOTB28:
	.p2align 4,,15
	.globl	findMapForASID
	.type	findMapForASID, @function
findMapForASID:
.LFB540:
	.file 20 "/home/axjllt/Desktop/ori_refos/kernel/src/arch/x86/kernel/vspace.c"
	.loc 20 536 0
	.cfi_startproc
.LVL123:
	.loc 20 536 0
	movl	8(%esp), %edx
	movl	4(%esp), %eax
	.loc 20 539 0
	movl	%edx, %ecx
	shrl	$10, %ecx
	movl	x86KSASIDTable(,%ecx,4), %ecx
.LVL124:
	.loc 20 540 0
	testl	%ecx, %ecx
	je	.L128
	.loc 20 544 0
	andl	$1023, %edx
	movl	(%ecx,%edx,4), %edx
	movl	%edx, (%eax)
	.loc 20 545 0
	ret	$4
.LVL125:
	.p2align 4,,10
	.p2align 3
.L128:
.LBB6576:
.LBB6577:
	.loc 11 1322 0
	movl	$0, (%eax)
.LVL126:
	ret	$4
.LBE6577:
.LBE6576:
	.cfi_endproc
.LFE540:
	.size	findMapForASID, .-findMapForASID
	.section	.text.unlikely
.LCOLDE28:
	.text
.LHOTE28:
	.section	.text.unlikely
.LCOLDB29:
	.text
.LHOTB29:
	.p2align 4,,15
	.globl	maskVMRights
	.type	maskVMRights, @function
maskVMRights:
.LFB547:
	.loc 20 673 0
	.cfi_startproc
.LVL127:
	.loc 20 673 0
	movl	4(%esp), %edx
	.loc 20 674 0
	cmpl	$2, %edx
	je	.L137
	.loc 20 684 0
	movl	$1, %eax
	.loc 20 677 0
	cmpl	$3, %edx
	je	.L138
.L131:
	.loc 20 685 0
	ret
	.p2align 4,,10
	.p2align 3
.L138:
.LVL128:
	.loc 20 677 0 discriminator 1
	testb	$2, 8(%esp)
	je	.L131
.LVL129:
	.loc 20 678 0
	movl	8(%esp), %eax
	andl	$1, %eax
	.loc 20 681 0
	cmpl	$1, %eax
	sbbl	%eax, %eax
	addl	$3, %eax
	.loc 20 685 0
	ret
.LVL130:
	.p2align 4,,10
	.p2align 3
.L137:
	.loc 20 674 0 discriminator 1
	movl	8(%esp), %eax
	andl	$2, %eax
	shrl	%eax
	.loc 20 675 0 discriminator 1
	cmpl	$1, %eax
	sbbl	%eax, %eax
	addl	$2, %eax
	ret
	.cfi_endproc
.LFE547:
	.size	maskVMRights, .-maskVMRights
	.section	.text.unlikely
.LCOLDE29:
	.text
.LHOTE29:
	.section	.text.unlikely
.LCOLDB30:
	.text
.LHOTB30:
	.p2align 4,,15
	.globl	apic_is_interrupt_pending
	.type	apic_is_interrupt_pending, @function
apic_is_interrupt_pending:
.LFB563:
	.file 21 "/home/axjllt/Desktop/ori_refos/kernel/src/arch/x86/kernel/xapic.c"
	.loc 21 58 0
	.cfi_startproc
.LVL131:
	.loc 21 63 0
	movl	$32, %eax
.LVL132:
.L141:
.LBB6578:
.LBB6579:
	.loc 19 53 0
	movl	%eax, %edx
	shrl	%edx
	movl	-65024(%edx), %edx
.LVL133:
.LBE6579:
.LBE6578:
	.loc 21 64 0
	testl	%edx, %edx
	jne	.L142
	.loc 21 63 0 discriminator 2
	addl	$32, %eax
.LVL134:
	cmpl	$160, %eax
	jne	.L141
	.loc 21 68 0
	xorl	%eax, %eax
.LVL135:
	ret
.LVL136:
	.p2align 4,,10
	.p2align 3
.L142:
	.loc 21 65 0
	movl	$1, %eax
.LVL137:
	.loc 21 69 0
	ret
	.cfi_endproc
.LFE563:
	.size	apic_is_interrupt_pending, .-apic_is_interrupt_pending
	.section	.text.unlikely
.LCOLDE30:
	.text
.LHOTE30:
	.section	.boot.text
.LCOLDB31:
.LHOTB31:
	.p2align 4,,15
	.globl	x86_cpuid_get_identity
	.type	x86_cpuid_get_identity, @function
x86_cpuid_get_identity:
.LFB584:
	.file 22 "/home/axjllt/Desktop/ori_refos/kernel/src/arch/x86/machine/cpu_identification.c"
	.loc 22 27 0
	.cfi_startproc
	.loc 22 29 0
	movl	$cpu_identity, %eax
	ret
	.cfi_endproc
.LFE584:
	.size	x86_cpuid_get_identity, .-x86_cpuid_get_identity
.LCOLDE31:
.LHOTE31:
.LCOLDB32:
.LHOTB32:
	.p2align 4,,15
	.globl	x86_cpuid_get_model_info
	.type	x86_cpuid_get_model_info, @function
x86_cpuid_get_model_info:
.LFB585:
	.loc 22 32 0
	.cfi_startproc
	.loc 22 34 0
	movl	$cpu_identity+17, %eax
	ret
	.cfi_endproc
.LFE585:
	.size	x86_cpuid_get_model_info, .-x86_cpuid_get_model_info
.LCOLDE32:
.LHOTE32:
	.section	.text.unlikely
.LCOLDB33:
	.text
.LHOTB33:
	.p2align 4,,15
	.globl	Arch_initFpuContext
	.type	Arch_initFpuContext, @function
Arch_initFpuContext:
.LFB590:
	.file 23 "/home/axjllt/Desktop/ori_refos/kernel/src/arch/x86/machine/fpu.c"
	.loc 23 22 0
	.cfi_startproc
.LVL138:
	pushl	%edi
	.cfi_def_cfa_offset 8
	.cfi_offset 7, -8
	.loc 23 23 0
	movl	$128, %ecx
	.loc 23 22 0
	pushl	%esi
	.cfi_def_cfa_offset 12
	.cfi_offset 6, -12
	.loc 23 23 0
	movl	$x86KSnullFpuState, %esi
	movl	12(%esp), %edi
	rep movsl
	.loc 23 24 0
	popl	%esi
	.cfi_restore 6
	.cfi_def_cfa_offset 8
	popl	%edi
	.cfi_restore 7
	.cfi_def_cfa_offset 4
	ret
	.cfi_endproc
.LFE590:
	.size	Arch_initFpuContext, .-Arch_initFpuContext
	.section	.text.unlikely
.LCOLDE33:
	.text
.LHOTE33:
	.section	.boot.text
.LCOLDB34:
.LHOTB34:
	.p2align 4,,15
	.globl	Arch_initFpu
	.type	Arch_initFpu, @function
Arch_initFpu:
.LFB591:
	.loc 23 31 0
	.cfi_startproc
.LBB6580:
.LBB6581:
	.loc 7 48 0
#APP
# 48 "/home/axjllt/Desktop/ori_refos/kernel/include/arch/x86/arch/32/mode/machine/cpu_registers.h" 1
	movl %cr4, %eax
# 0 "" 2
.LVL139:
#NO_APP
.LBE6581:
.LBE6580:
.LBB6582:
.LBB6583:
	.loc 7 54 0
	orb	$2, %ah
.LVL140:
#APP
# 54 "/home/axjllt/Desktop/ori_refos/kernel/include/arch/x86/arch/32/mode/machine/cpu_registers.h" 1
	movl %eax, %cr4
# 0 "" 2
#NO_APP
.LBE6583:
.LBE6582:
.LBB6584:
.LBB6585:
	.loc 7 29 0
#APP
# 29 "/home/axjllt/Desktop/ori_refos/kernel/include/arch/x86/arch/32/mode/machine/cpu_registers.h" 1
	movl %cr0, %eax
# 0 "" 2
.LVL141:
#NO_APP
.LBE6585:
.LBE6584:
.LBB6586:
.LBB6587:
	.loc 7 35 0
	andl	$-39, %eax
.LVL142:
	orl	$34, %eax
.LVL143:
#APP
# 35 "/home/axjllt/Desktop/ori_refos/kernel/include/arch/x86/arch/32/mode/machine/cpu_registers.h" 1
	movl %eax, %cr0
# 0 "" 2
.LVL144:
#NO_APP
.LBE6587:
.LBE6586:
.LBB6588:
.LBB6589:
	.file 24 "/home/axjllt/Desktop/ori_refos/kernel/include/arch/x86/arch/machine/fpu.h"
	.loc 24 108 0
#APP
# 108 "/home/axjllt/Desktop/ori_refos/kernel/include/arch/x86/arch/machine/fpu.h" 1
	clts
# 0 "" 2
#NO_APP
.LBE6589:
.LBE6588:
.LBB6590:
.LBB6591:
	.loc 24 99 0
#APP
# 99 "/home/axjllt/Desktop/ori_refos/kernel/include/arch/x86/arch/machine/fpu.h" 1
	finit
# 0 "" 2
.LVL145:
#NO_APP
.LBE6591:
.LBE6590:
.LBB6592:
.LBB6593:
	.loc 24 70 0
#APP
# 70 "/home/axjllt/Desktop/ori_refos/kernel/include/arch/x86/arch/machine/fpu.h" 1
	fxsave x86KSnullFpuState
# 0 "" 2
.LVL146:
#NO_APP
.LBE6593:
.LBE6592:
.LBB6594:
.LBB6595:
.LBB6596:
.LBB6597:
	.loc 7 29 0
#APP
# 29 "/home/axjllt/Desktop/ori_refos/kernel/include/arch/x86/arch/32/mode/machine/cpu_registers.h" 1
	movl %cr0, %eax
# 0 "" 2
.LVL147:
#NO_APP
.LBE6597:
.LBE6596:
.LBB6598:
.LBB6599:
	.loc 7 35 0
	orl	$8, %eax
.LVL148:
#APP
# 35 "/home/axjllt/Desktop/ori_refos/kernel/include/arch/x86/arch/32/mode/machine/cpu_registers.h" 1
	movl %eax, %cr0
# 0 "" 2
.LVL149:
#NO_APP
.LBE6599:
.LBE6598:
.LBE6595:
.LBE6594:
	.loc 23 111 0
	movl	$1, %eax
	ret
	.cfi_endproc
.LFE591:
	.size	Arch_initFpu, .-Arch_initFpu
.LCOLDE34:
.LHOTE34:
.LCOLDB35:
.LHOTB35:
	.p2align 4,,15
	.globl	init_sysenter_msrs
	.type	init_sysenter_msrs, @function
init_sysenter_msrs:
.LFB592:
	.file 25 "/home/axjllt/Desktop/ori_refos/kernel/src/arch/x86/machine/hardware.c"
	.loc 25 23 0
	.cfi_startproc
.LVL150:
.LBB6600:
.LBB6601:
.LBB6602:
.LBB6603:
	.loc 10 120 0
	movl	$372, %ecx
	xorl	%edx, %edx
	movl	$8, %eax
#APP
# 120 "/home/axjllt/Desktop/ori_refos/kernel/include/arch/x86/arch/machine.h" 1
	wrmsr
# 0 "" 2
.LVL151:
#NO_APP
.LBE6603:
.LBE6602:
.LBE6601:
.LBE6600:
.LBB6604:
.LBB6605:
.LBB6606:
.LBB6607:
	movl	$374, %ecx
	movl	$handle_syscall, %eax
#APP
# 120 "/home/axjllt/Desktop/ori_refos/kernel/include/arch/x86/arch/machine.h" 1
	wrmsr
# 0 "" 2
.LVL152:
#NO_APP
.LBE6607:
.LBE6606:
.LBE6605:
.LBE6604:
.LBB6608:
.LBB6609:
.LBB6610:
.LBB6611:
	movl	$373, %ecx
	movl	$x86KStss+4, %eax
.LVL153:
#APP
# 120 "/home/axjllt/Desktop/ori_refos/kernel/include/arch/x86/arch/machine.h" 1
	wrmsr
# 0 "" 2
.LVL154:
#NO_APP
	ret
.LBE6611:
.LBE6610:
.LBE6609:
.LBE6608:
	.cfi_endproc
.LFE592:
	.size	init_sysenter_msrs, .-init_sysenter_msrs
.LCOLDE35:
.LHOTE35:
	.section	.text.unlikely
.LCOLDB36:
	.text
.LHOTB36:
	.p2align 4,,15
	.globl	getRestartPC
	.type	getRestartPC, @function
getRestartPC:
.LFB593:
	.loc 25 35 0
	.cfi_startproc
.LVL155:
	.loc 25 36 0
	movl	4(%esp), %eax
	movl	556(%eax), %eax
	.loc 25 37 0
	ret
	.cfi_endproc
.LFE593:
	.size	getRestartPC, .-getRestartPC
	.section	.text.unlikely
.LCOLDE36:
	.text
.LHOTE36:
	.section	.text.unlikely
.LCOLDB37:
	.text
.LHOTB37:
	.p2align 4,,15
	.globl	setNextPC
	.type	setNextPC, @function
setNextPC:
.LFB594:
	.loc 25 40 0
	.cfi_startproc
.LVL156:
.LBB6612:
.LBB6613:
	.loc 15 30 0
	movl	8(%esp), %edx
	movl	4(%esp), %eax
	movl	%edx, 568(%eax)
.LVL157:
	ret
.LBE6613:
.LBE6612:
	.cfi_endproc
.LFE594:
	.size	setNextPC, .-setNextPC
	.section	.text.unlikely
.LCOLDE37:
	.text
.LHOTE37:
	.section	.text.unlikely
.LCOLDB38:
	.text
.LHOTB38:
	.p2align 4,,15
	.globl	Arch_initContext
	.type	Arch_initContext, @function
Arch_initContext:
.LFB598:
	.file 26 "/home/axjllt/Desktop/ori_refos/kernel/src/arch/x86/machine/registerset.c"
	.loc 26 17 0
	.cfi_startproc
.LVL158:
	pushl	%edi
	.cfi_def_cfa_offset 8
	.cfi_offset 7, -8
.LBB6614:
.LBB6615:
	.loc 23 23 0
	movl	$128, %ecx
.LBE6615:
.LBE6614:
	.loc 26 17 0
	pushl	%esi
	.cfi_def_cfa_offset 12
	.cfi_offset 6, -12
	.loc 26 17 0
	movl	12(%esp), %eax
.LVL159:
.LBB6619:
.LBB6616:
	.loc 23 23 0
	movl	$x86KSnullFpuState, %esi
.LBE6616:
.LBE6619:
.LBB6620:
.LBB6621:
	.loc 5 32 0
	movl	$0, 512(%eax)
.LBE6621:
.LBE6620:
.LBB6623:
.LBB6617:
	.loc 23 23 0
	movl	%eax, %edi
.LBE6617:
.LBE6623:
.LBB6624:
.LBB6622:
	.loc 5 33 0
	movl	$0, 516(%eax)
	.loc 5 34 0
	movl	$0, 520(%eax)
	.loc 5 35 0
	movl	$0, 524(%eax)
	.loc 5 36 0
	movl	$0, 528(%eax)
	.loc 5 37 0
	movl	$0, 532(%eax)
	.loc 5 38 0
	movl	$0, 536(%eax)
	.loc 5 39 0
	movl	$35, 540(%eax)
	.loc 5 40 0
	movl	$35, 544(%eax)
	.loc 5 41 0
	movl	$59, 548(%eax)
	.loc 5 42 0
	movl	$51, 552(%eax)
	.loc 5 43 0
	movl	$0, 580(%eax)
.LVL160:
.LBE6622:
.LBE6624:
	.loc 26 19 0
	movl	$0, 560(%eax)
	.loc 26 20 0
	movl	$0, 564(%eax)
	.loc 26 21 0
	movl	$0, 556(%eax)
	.loc 26 22 0
	movl	$0, 568(%eax)
	.loc 26 23 0
	movl	$27, 572(%eax)
	.loc 26 24 0
	movl	$514, 576(%eax)
	.loc 26 25 0
	movl	$35, 584(%eax)
.LVL161:
.LBB6625:
.LBB6618:
	.loc 23 23 0
	rep movsl
.LVL162:
.LBE6618:
.LBE6625:
	.loc 26 31 0
	popl	%esi
	.cfi_restore 6
	.cfi_def_cfa_offset 8
	popl	%edi
	.cfi_restore 7
	.cfi_def_cfa_offset 4
	ret
	.cfi_endproc
.LFE598:
	.size	Arch_initContext, .-Arch_initContext
	.section	.text.unlikely
.LCOLDE38:
	.text
.LHOTE38:
	.section	.text.unlikely
.LCOLDB39:
	.text
.LHOTB39:
	.p2align 4,,15
	.globl	sanitiseRegister
	.type	sanitiseRegister, @function
sanitiseRegister:
.LFB599:
	.loc 26 34 0
	.cfi_startproc
.LVL163:
	.loc 26 34 0
	movl	4(%esp), %edx
	movl	8(%esp), %eax
.LVL164:
.LBB6626:
.LBB6627:
	.loc 5 48 0
	leal	-9(%edx), %ecx
	cmpl	$1, %ecx
	jbe	.L157
.LVL165:
.LBE6627:
.LBE6626:
	.loc 26 37 0
	cmpl	$16, %edx
	jne	.L156
.LVL166:
	andl	$3799, %eax
	.loc 26 45 0
	orl	$514, %eax
.LVL167:
.L156:
	.loc 26 48 0
	ret
.LVL168:
	.p2align 4,,10
	.p2align 3
.L157:
.LBB6629:
.LBB6628:
	jmp	Mode_sanitiseRegister.part.55
.LVL169:
.LBE6628:
.LBE6629:
	.cfi_endproc
.LFE599:
	.size	sanitiseRegister, .-sanitiseRegister
	.section	.text.unlikely
.LCOLDE39:
	.text
.LHOTE39:
	.section	.text.unlikely
.LCOLDB40:
	.text
.LHOTB40:
	.p2align 4,,15
	.globl	Arch_irqStateInit
	.type	Arch_irqStateInit, @function
Arch_irqStateInit:
.LFB600:
	.file 27 "/home/axjllt/Desktop/ori_refos/kernel/src/arch/x86/object/interrupt.c"
	.loc 27 21 0
	.cfi_startproc
.LVL170:
	.loc 27 21 0
	movl	$-124, %eax
.LVL171:
	.p2align 4,,10
	.p2align 3
.L161:
	.loc 27 29 0
	movl	$0, x86KSIRQState+992(,%eax,8)
	.loc 27 24 0
	cmpl	$1, %eax
	jbe	.L163
.LVL172:
	.loc 27 31 0
	movl	$0, x86KSIRQState+996(,%eax,8)
.L160:
.LVL173:
	addl	$1, %eax
.LVL174:
	.loc 27 23 0 discriminator 2
	cmpl	$2, %eax
	jne	.L161
	.loc 27 34 0
	ret
.L163:
.LVL175:
	.loc 27 29 0
	movl	$805306368, x86KSIRQState+996(,%eax,8)
	jmp	.L160
	.cfi_endproc
.LFE600:
	.size	Arch_irqStateInit, .-Arch_irqStateInit
	.section	.text.unlikely
.LCOLDE40:
	.text
.LHOTE40:
	.section	.boot.text
.LCOLDB41:
.LHOTB41:
	.p2align 4,,15
	.globl	master_iospace_cap
	.type	master_iospace_cap, @function
master_iospace_cap:
.LFB607:
	.loc 3 33 0
	.cfi_startproc
.LVL176:
	.loc 3 34 0
	movl	x86KSnumDrhu, %edx
	.loc 3 33 0
	movl	4(%esp), %eax
	.loc 3 34 0
	testl	%edx, %edx
	je	.L167
.LVL177:
.LBB6630:
.LBB6631:
	.loc 11 3313 0
	movl	$13, (%eax)
	movl	$0, 4(%eax)
.LVL178:
.LBE6631:
.LBE6630:
	.loc 3 43 0
	ret	$4
.LVL179:
	.p2align 4,,10
	.p2align 3
.L167:
.LBB6632:
.LBB6633:
	.loc 11 2225 0
	movl	$0, (%eax)
	movl	$0, 4(%eax)
.LVL180:
	ret	$4
.LBE6633:
.LBE6632:
	.cfi_endproc
.LFE607:
	.size	master_iospace_cap, .-master_iospace_cap
.LCOLDE41:
.LHOTE41:
	.section	.text.unlikely
.LCOLDB42:
	.text
.LHOTB42:
	.p2align 4,,15
	.globl	Arch_prepareThreadDelete
	.type	Arch_prepareThreadDelete, @function
Arch_prepareThreadDelete:
.LFB631:
	.file 28 "/home/axjllt/Desktop/ori_refos/kernel/src/arch/x86/object/objecttype.c"
	.loc 28 552 0
	.cfi_startproc
.LVL181:
	.loc 28 552 0
	movl	4(%esp), %eax
.LBB6634:
.LBB6635:
	.loc 6 72 0
	cmpl	ksActiveFPUState, %eax
	je	.L174
	ret
	.p2align 4,,10
	.p2align 3
.L174:
.LVL182:
.LBB6636:
.LBB6637:
.LBB6638:
.LBB6639:
.LBB6640:
	.loc 24 108 0
#APP
# 108 "/home/axjllt/Desktop/ori_refos/kernel/include/arch/x86/arch/machine/fpu.h" 1
	clts
# 0 "" 2
#NO_APP
.LBE6640:
.LBE6639:
	.loc 6 24 0
	testl	%eax, %eax
	je	.L170
.LVL183:
.LBB6641:
.LBB6642:
	.loc 24 70 0
#APP
# 70 "/home/axjllt/Desktop/ori_refos/kernel/include/arch/x86/arch/machine/fpu.h" 1
	fxsave (%eax)
# 0 "" 2
.LVL184:
#NO_APP
.L170:
.LBE6642:
.LBE6641:
.LBE6638:
.LBE6637:
.LBE6636:
	jmp	fpuThreadDelete.part.56
.LVL185:
.LBE6635:
.LBE6634:
	.cfi_endproc
.LFE631:
	.size	Arch_prepareThreadDelete, .-Arch_prepareThreadDelete
	.section	.text.unlikely
.LCOLDE42:
	.text
.LHOTE42:
	.section	.text.unlikely
.LCOLDB43:
	.text
.LHOTB43:
	.p2align 4,,15
	.globl	Arch_decodeTransfer
	.type	Arch_decodeTransfer, @function
Arch_decodeTransfer:
.LFB632:
	.file 29 "/home/axjllt/Desktop/ori_refos/kernel/src/arch/x86/object/tcb.c"
	.loc 29 19 0
	.cfi_startproc
.LVL186:
	.loc 29 21 0
	xorl	%eax, %eax
	ret
	.cfi_endproc
.LFE632:
	.size	Arch_decodeTransfer, .-Arch_decodeTransfer
	.section	.text.unlikely
.LCOLDE43:
	.text
.LHOTE43:
	.section	.text.unlikely
.LCOLDB44:
	.text
.LHOTB44:
	.p2align 4,,15
	.globl	Arch_performTransfer
	.type	Arch_performTransfer, @function
Arch_performTransfer:
.LFB633:
	.loc 29 24 0
	.cfi_startproc
.LVL187:
	.loc 29 26 0
	xorl	%eax, %eax
	ret
	.cfi_endproc
.LFE633:
	.size	Arch_performTransfer, .-Arch_performTransfer
	.section	.text.unlikely
.LCOLDE44:
	.text
.LHOTE44:
	.section	.text.unlikely
.LCOLDB45:
	.text
.LHOTB45:
	.p2align 4,,15
	.globl	Arch_setTCBIPCBuffer
	.type	Arch_setTCBIPCBuffer, @function
Arch_setTCBIPCBuffer:
.LFB634:
	.loc 29 101 0
	.cfi_startproc
.LVL188:
	ret
	.cfi_endproc
.LFE634:
	.size	Arch_setTCBIPCBuffer, .-Arch_setTCBIPCBuffer
	.section	.text.unlikely
.LCOLDE45:
	.text
.LHOTE45:
	.section	.boot.text
.LCOLDB46:
.LHOTB46:
	.p2align 4,,15
	.globl	init_core_state
	.type	init_core_state, @function
init_core_state:
.LFB661:
	.file 30 "/home/axjllt/Desktop/ori_refos/kernel/src/kernel/boot.c"
	.loc 30 481 0
	.cfi_startproc
.LVL189:
	.loc 30 483 0
	movl	$0, ksActiveFPUState
	.loc 30 481 0
	movl	4(%esp), %edx
	.loc 30 488 0
	leal	-1(%edx), %eax
	cmpl	$-3, %eax
	jbe	.L182
.LVL190:
.LBB6643:
	.loc 30 493 0
	movl	ksIdleThread, %eax
.LVL191:
.LBB6644:
.LBB6645:
	.file 31 "/home/axjllt/Desktop/ori_refos/kernel/src/object/tcb.c"
	.loc 31 178 0
	xorl	%ecx, %ecx
	movl	$0, 664(%eax)
.L180:
	.loc 31 184 0
	movl	%ecx, 660(%eax)
	.loc 31 185 0
	movl	%eax, ksDebugTCBs
.LVL192:
.LBE6645:
.LBE6644:
.LBE6643:
	.loc 30 496 0
	movl	%edx, ksSchedulerAction
	.loc 30 497 0
	movl	%eax, ksCurThread
	.loc 30 498 0
	ret
.LVL193:
	.p2align 4,,10
	.p2align 3
.L182:
.LBB6650:
	.loc 30 493 0
	movl	ksIdleThread, %eax
.LBB6648:
.LBB6646:
	.loc 31 181 0
	movl	%edx, %ecx
.LBE6646:
.LBE6648:
.LBE6650:
.LBB6651:
.LBB6652:
	.loc 31 184 0
	movl	$0, 660(%edx)
.LVL194:
.LBE6652:
.LBE6651:
.LBB6653:
.LBB6649:
.LBB6647:
	.loc 31 178 0
	movl	$0, 664(%eax)
	.loc 31 181 0
	movl	%eax, 664(%edx)
	jmp	.L180
.LBE6647:
.LBE6649:
.LBE6653:
	.cfi_endproc
.LFE661:
	.size	init_core_state, .-init_core_state
.LCOLDE46:
.LHOTE46:
.LCOLDB47:
.LHOTB47:
	.p2align 4,,15
	.globl	bi_finalise
	.type	bi_finalise, @function
bi_finalise:
.LFB666:
	.loc 30 596 0
	.cfi_startproc
.LVL195:
	.loc 30 598 0
	movl	ndks_boot+136, %edx
.LVL196:
	.loc 30 599 0
	movl	ndks_boot+128, %eax
	movl	ndks_boot+132, %ecx
	movl	%edx, 24(%eax)
.LVL197:
	movl	%ecx, 20(%eax)
	ret
	.cfi_endproc
.LFE666:
	.size	bi_finalise, .-bi_finalise
.LCOLDE47:
.LHOTE47:
	.section	.text.unlikely
.LCOLDB48:
	.text
.LHOTB48:
	.p2align 4,,15
	.globl	doNBRecvFailedTransfer
	.type	doNBRecvFailedTransfer, @function
doNBRecvFailedTransfer:
.LFB689:
	.file 32 "/home/axjllt/Desktop/ori_refos/kernel/src/kernel/thread.c"
	.loc 32 251 0
	.cfi_startproc
.LVL198:
.LBB6654:
.LBB6655:
	.loc 15 30 0
	movl	4(%esp), %eax
	movl	$0, 516(%eax)
.LVL199:
	ret
.LBE6655:
.LBE6654:
	.cfi_endproc
.LFE689:
	.size	doNBRecvFailedTransfer, .-doNBRecvFailedTransfer
	.section	.text.unlikely
.LCOLDE48:
	.text
.LHOTE48:
	.section	.text.unlikely
.LCOLDB49:
	.text
.LHOTB49:
	.p2align 4,,15
	.globl	setMCPriority
	.type	setMCPriority, @function
setMCPriority:
.LFB696:
	.loc 32 360 0
	.cfi_startproc
.LVL200:
	.loc 32 361 0
	movl	8(%esp), %edx
	movl	4(%esp), %eax
	movl	%edx, 624(%eax)
	ret
	.cfi_endproc
.LFE696:
	.size	setMCPriority, .-setMCPriority
	.section	.text.unlikely
.LCOLDE49:
	.text
.LHOTE49:
	.section	.text.unlikely
.LCOLDB50:
	.text
.LHOTB50:
	.p2align 4,,15
	.globl	switchLocalFpuOwner
	.type	switchLocalFpuOwner, @function
switchLocalFpuOwner:
.LFB705:
	.loc 6 22 0
	.cfi_startproc
.LVL201:
	.loc 6 22 0
	movl	4(%esp), %eax
.LBB6656:
.LBB6657:
	.loc 24 108 0
#APP
# 108 "/home/axjllt/Desktop/ori_refos/kernel/include/arch/x86/arch/machine/fpu.h" 1
	clts
# 0 "" 2
#NO_APP
.LBE6657:
.LBE6656:
	.loc 6 24 0
	movl	ksActiveFPUState, %edx
	testl	%edx, %edx
	je	.L187
.LVL202:
.LBB6658:
.LBB6659:
	.loc 24 70 0
#APP
# 70 "/home/axjllt/Desktop/ori_refos/kernel/include/arch/x86/arch/machine/fpu.h" 1
	fxsave (%edx)
# 0 "" 2
.LVL203:
#NO_APP
.L187:
.LBE6659:
.LBE6658:
	.loc 6 27 0
	testl	%eax, %eax
	je	.L188
	.loc 6 28 0
	movl	$0, ksFPURestoresSinceSwitch
.LVL204:
.LBB6660:
.LBB6661:
	.loc 24 86 0
#APP
# 86 "/home/axjllt/Desktop/ori_refos/kernel/include/arch/x86/arch/machine/fpu.h" 1
	fxrstor (%eax)
# 0 "" 2
#NO_APP
.LBE6661:
.LBE6660:
	.loc 6 33 0
	movl	%eax, ksActiveFPUState
	ret
.LVL205:
	.p2align 4,,10
	.p2align 3
.L188:
.LBB6662:
.LBB6663:
.LBB6664:
.LBB6665:
	.loc 7 29 0
#APP
# 29 "/home/axjllt/Desktop/ori_refos/kernel/include/arch/x86/arch/32/mode/machine/cpu_registers.h" 1
	movl %cr0, %edx
# 0 "" 2
.LVL206:
#NO_APP
.LBE6665:
.LBE6664:
.LBB6666:
.LBB6667:
	.loc 7 35 0
	orl	$8, %edx
.LVL207:
#APP
# 35 "/home/axjllt/Desktop/ori_refos/kernel/include/arch/x86/arch/32/mode/machine/cpu_registers.h" 1
	movl %edx, %cr0
# 0 "" 2
.LVL208:
#NO_APP
.LBE6667:
.LBE6666:
.LBE6663:
.LBE6662:
	.loc 6 33 0
	movl	%eax, ksActiveFPUState
	ret
	.cfi_endproc
.LFE705:
	.size	switchLocalFpuOwner, .-switchLocalFpuOwner
	.section	.text.unlikely
.LCOLDE50:
	.text
.LHOTE50:
	.section	.text.unlikely
.LCOLDB51:
	.text
.LHOTB51:
	.p2align 4,,15
	.globl	switchFpuOwner
	.type	switchFpuOwner, @function
switchFpuOwner:
.LFB706:
	.loc 6 37 0
	.cfi_startproc
.LVL209:
	.loc 6 37 0
	movl	4(%esp), %eax
.LVL210:
.LBB6668:
.LBB6669:
.LBB6670:
.LBB6671:
	.loc 24 108 0
#APP
# 108 "/home/axjllt/Desktop/ori_refos/kernel/include/arch/x86/arch/machine/fpu.h" 1
	clts
# 0 "" 2
#NO_APP
.LBE6671:
.LBE6670:
	.loc 6 24 0
	movl	ksActiveFPUState, %edx
	testl	%edx, %edx
	je	.L194
.LVL211:
.LBB6672:
.LBB6673:
	.loc 24 70 0
#APP
# 70 "/home/axjllt/Desktop/ori_refos/kernel/include/arch/x86/arch/machine/fpu.h" 1
	fxsave (%edx)
# 0 "" 2
.LVL212:
#NO_APP
.L194:
.LBE6673:
.LBE6672:
	.loc 6 27 0
	testl	%eax, %eax
	je	.L195
	.loc 6 28 0
	movl	$0, ksFPURestoresSinceSwitch
.LVL213:
.LBB6674:
.LBB6675:
	.loc 24 86 0
#APP
# 86 "/home/axjllt/Desktop/ori_refos/kernel/include/arch/x86/arch/machine/fpu.h" 1
	fxrstor (%eax)
# 0 "" 2
#NO_APP
.LBE6675:
.LBE6674:
	.loc 6 33 0
	movl	%eax, ksActiveFPUState
.LVL214:
	ret
.LVL215:
	.p2align 4,,10
	.p2align 3
.L195:
.LBB6676:
.LBB6677:
.LBB6678:
.LBB6679:
	.loc 7 29 0
#APP
# 29 "/home/axjllt/Desktop/ori_refos/kernel/include/arch/x86/arch/32/mode/machine/cpu_registers.h" 1
	movl %cr0, %edx
# 0 "" 2
.LVL216:
#NO_APP
.LBE6679:
.LBE6678:
.LBB6680:
.LBB6681:
	.loc 7 35 0
	orl	$8, %edx
.LVL217:
#APP
# 35 "/home/axjllt/Desktop/ori_refos/kernel/include/arch/x86/arch/32/mode/machine/cpu_registers.h" 1
	movl %edx, %cr0
# 0 "" 2
.LVL218:
#NO_APP
.LBE6681:
.LBE6680:
.LBE6677:
.LBE6676:
	.loc 6 33 0
	movl	%eax, ksActiveFPUState
.LVL219:
	ret
.LBE6669:
.LBE6668:
	.cfi_endproc
.LFE706:
	.size	switchFpuOwner, .-switchFpuOwner
	.section	.text.unlikely
.LCOLDE51:
	.text
.LHOTE51:
	.section	.text.unlikely
.LCOLDB52:
	.text
.LHOTB52:
	.p2align 4,,15
	.globl	fpuThreadDelete
	.type	fpuThreadDelete, @function
fpuThreadDelete:
.LFB708:
	.loc 6 69 0
	.cfi_startproc
.LVL220:
	.loc 6 69 0
	movl	4(%esp), %eax
	.loc 6 72 0
	cmpl	ksActiveFPUState, %eax
	je	.L206
	ret
	.p2align 4,,10
	.p2align 3
.L206:
.LVL221:
.LBB6682:
.LBB6683:
.LBB6684:
.LBB6685:
.LBB6686:
	.loc 24 108 0
#APP
# 108 "/home/axjllt/Desktop/ori_refos/kernel/include/arch/x86/arch/machine/fpu.h" 1
	clts
# 0 "" 2
#NO_APP
.LBE6686:
.LBE6685:
	.loc 6 24 0
	testl	%eax, %eax
	je	.L202
.LVL222:
.LBB6687:
.LBB6688:
	.loc 24 70 0
#APP
# 70 "/home/axjllt/Desktop/ori_refos/kernel/include/arch/x86/arch/machine/fpu.h" 1
	fxsave (%eax)
# 0 "" 2
.LVL223:
#NO_APP
.L202:
.LBE6688:
.LBE6687:
.LBE6684:
.LBE6683:
.LBE6682:
	jmp	fpuThreadDelete.part.56
.LVL224:
	.cfi_endproc
.LFE708:
	.size	fpuThreadDelete, .-fpuThreadDelete
	.section	.text.unlikely
.LCOLDE52:
	.text
.LHOTE52:
	.section	.text.unlikely
.LCOLDB53:
	.text
.LHOTB53:
	.p2align 4,,15
	.globl	ensureEmptySlot
	.type	ensureEmptySlot, @function
ensureEmptySlot:
.LFB747:
	.file 33 "/home/axjllt/Desktop/ori_refos/kernel/src/object/cnode.c"
	.loc 33 875 0
	.cfi_startproc
.LVL225:
	movl	4(%esp), %eax
	movl	(%eax), %eax
.LVL226:
.LBB6689:
.LBB6690:
	.loc 11 2202 0
	movl	%eax, %ecx
	.loc 11 2203 0
	movl	%eax, %edx
	movzbl	%al, %eax
.LVL227:
	.loc 11 2202 0
	andl	$14, %ecx
	.loc 11 2203 0
	andl	$15, %edx
.LVL228:
	cmpl	$14, %ecx
	cmove	%eax, %edx
.LVL229:
.LBE6690:
.LBE6689:
	.loc 33 881 0
	xorl	%eax, %eax
	.loc 33 876 0
	testl	%edx, %edx
	je	.L210
	.loc 33 877 0
	movl	$8, current_syscall_error+24
	.loc 33 878 0
	movl	$3, %eax
.L210:
	.loc 33 882 0
	ret
	.cfi_endproc
.LFE747:
	.size	ensureEmptySlot, .-ensureEmptySlot
	.section	.text.unlikely
.LCOLDE53:
	.text
.LHOTE53:
	.section	.text.unlikely
.LCOLDB54:
	.text
.LHOTB54:
	.p2align 4,,15
	.globl	loadCapTransfer
	.type	loadCapTransfer, @function
loadCapTransfer:
.LFB751:
	.loc 33 973 0
	.cfi_startproc
.LVL230:
	.loc 33 973 0
	movl	8(%esp), %edx
.LVL231:
	movl	4(%esp), %eax
.LBB6691:
.LBB6692:
	.file 34 "/home/axjllt/Desktop/ori_refos/kernel/include/api/types.h"
	.loc 34 66 0
	movl	504(%edx), %ecx
	movl	%ecx, 4(%eax)
.LVL232:
	.loc 34 67 0
	movl	508(%edx), %ecx
.LVL233:
	.loc 34 68 0
	movl	500(%edx), %edx
	movl	%ecx, 8(%eax)
.LVL234:
	movl	%edx, (%eax)
.LBE6692:
.LBE6691:
	.loc 33 976 0
	ret	$4
	.cfi_endproc
.LFE751:
	.size	loadCapTransfer, .-loadCapTransfer
	.section	.text.unlikely
.LCOLDE54:
	.text
.LHOTE54:
	.section	.text.unlikely
.LCOLDB55:
	.text
.LHOTB55:
	.p2align 4,,15
	.globl	isIRQActive
	.type	isIRQActive, @function
isIRQActive:
.LFB770:
	.file 35 "/home/axjllt/Desktop/ori_refos/kernel/src/object/interrupt.c"
	.loc 35 259 0
	.cfi_startproc
.LVL235:
	.loc 35 260 0
	movzbl	4(%esp), %eax
	movl	intStateIRQTable(,%eax,4), %eax
	testl	%eax, %eax
	setne	%al
	movzbl	%al, %eax
	.loc 35 261 0
	ret
	.cfi_endproc
.LFE770:
	.size	isIRQActive, .-isIRQActive
	.section	.text.unlikely
.LCOLDE55:
	.text
.LHOTE55:
	.section	.text.unlikely
.LCOLDB56:
	.text
.LHOTB56:
	.p2align 4,,15
	.globl	unbindMaybeNotification
	.type	unbindMaybeNotification, @function
unbindMaybeNotification:
.LFB781:
	.file 36 "/home/axjllt/Desktop/ori_refos/kernel/src/object/notification.c"
	.loc 36 229 0
	.cfi_startproc
.LVL236:
	.loc 36 229 0
	movl	4(%esp), %edx
	movl	12(%edx), %eax
.LVL237:
	.loc 36 233 0
	movl	%eax, %ecx
	andl	$-16, %ecx
.LVL238:
	je	.L215
.LVL239:
.LBB6693:
.LBB6694:
.LBB6695:
.LBB6696:
	.loc 11 1047 0
	andl	$15, %eax
	movl	%eax, 12(%edx)
.LVL240:
.LBE6696:
.LBE6695:
	.loc 36 224 0
	movl	$0, 600(%ecx)
.LVL241:
.L215:
	ret
.LBE6694:
.LBE6693:
	.cfi_endproc
.LFE781:
	.size	unbindMaybeNotification, .-unbindMaybeNotification
	.section	.text.unlikely
.LCOLDE56:
	.text
.LHOTE56:
	.section	.text.unlikely
.LCOLDB57:
	.text
.LHOTB57:
	.p2align 4,,15
	.globl	unbindNotification
	.type	unbindNotification, @function
unbindNotification:
.LFB782:
	.loc 36 240 0
	.cfi_startproc
.LVL242:
	.loc 36 240 0
	movl	4(%esp), %edx
	.loc 36 242 0
	movl	600(%edx), %eax
.LVL243:
	.loc 36 244 0
	testl	%eax, %eax
	je	.L220
.LVL244:
.LBB6697:
.LBB6698:
.LBB6699:
.LBB6700:
	.loc 11 1047 0
	andl	$15, 12(%eax)
.LVL245:
.LBE6700:
.LBE6699:
	.loc 36 224 0
	movl	$0, 600(%edx)
.LVL246:
.L220:
	ret
.LBE6698:
.LBE6697:
	.cfi_endproc
.LFE782:
	.size	unbindNotification, .-unbindNotification
	.section	.text.unlikely
.LCOLDE57:
	.text
.LHOTE57:
	.section	.text.unlikely
.LCOLDB58:
	.text
.LHOTB58:
	.p2align 4,,15
	.globl	tcbDebugAppend
	.type	tcbDebugAppend, @function
tcbDebugAppend:
.LFB804:
	.loc 31 176 0
	.cfi_startproc
.LVL247:
	.loc 31 176 0
	movl	4(%esp), %eax
	.loc 31 180 0
	movl	ksDebugTCBs, %edx
	.loc 31 178 0
	movl	$0, 664(%eax)
	.loc 31 180 0
	testl	%edx, %edx
	je	.L226
	.loc 31 181 0
	movl	%eax, 664(%edx)
.LVL248:
.L226:
	.loc 31 184 0
	movl	%edx, 660(%eax)
	.loc 31 185 0
	movl	%eax, ksDebugTCBs
	ret
	.cfi_endproc
.LFE804:
	.size	tcbDebugAppend, .-tcbDebugAppend
	.section	.text.unlikely
.LCOLDE58:
	.text
.LHOTE58:
	.section	.text.unlikely
.LCOLDB59:
	.text
.LHOTB59:
	.p2align 4,,15
	.globl	tcbEPAppend
	.type	tcbEPAppend, @function
tcbEPAppend:
.LFB806:
	.loc 31 210 0
	.cfi_startproc
.LVL249:
	pushl	%ebx
	.cfi_def_cfa_offset 8
	.cfi_offset 3, -8
	movl	16(%esp), %ecx
	.loc 31 210 0
	movl	8(%esp), %eax
	movl	12(%esp), %edx
	movl	20(%esp), %ebx
	.loc 31 211 0
	testl	%ecx, %ecx
	je	.L232
	.loc 31 214 0
	movl	%edx, 652(%ebx)
.LVL250:
.L231:
	.loc 31 216 0
	movl	%ebx, 656(%edx)
	.loc 31 217 0
	movl	$0, 652(%edx)
	.loc 31 220 0
	movl	%ecx, (%eax)
	movl	%edx, 4(%eax)
	.loc 31 221 0
	popl	%ebx
	.cfi_remember_state
	.cfi_restore 3
	.cfi_def_cfa_offset 4
.LVL251:
	ret	$4
.LVL252:
	.p2align 4,,10
	.p2align 3
.L232:
	.cfi_restore_state
	movl	%edx, %ecx
	jmp	.L231
	.cfi_endproc
.LFE806:
	.size	tcbEPAppend, .-tcbEPAppend
	.section	.text.unlikely
.LCOLDE59:
	.text
.LHOTE59:
	.section	.text.unlikely
.LCOLDB60:
	.text
.LHOTB60:
	.p2align 4,,15
	.globl	tcbEPDequeue
	.type	tcbEPDequeue, @function
tcbEPDequeue:
.LFB807:
	.loc 31 226 0
	.cfi_startproc
.LVL253:
	pushl	%edi
	.cfi_def_cfa_offset 8
	.cfi_offset 7, -8
	pushl	%esi
	.cfi_def_cfa_offset 12
	.cfi_offset 6, -12
	pushl	%ebx
	.cfi_def_cfa_offset 16
	.cfi_offset 3, -16
	.loc 31 226 0
	movl	20(%esp), %edx
	movl	16(%esp), %eax
	movl	24(%esp), %ebx
	movl	28(%esp), %esi
	.loc 31 227 0
	movl	656(%edx), %ecx
	testl	%ecx, %ecx
	je	.L235
	.loc 31 228 0
	movl	652(%edx), %edi
	movl	%edi, 652(%ecx)
	movl	652(%edx), %edx
	.loc 31 233 0
	testl	%edx, %edx
	je	.L238
.L240:
	.loc 31 234 0
	movl	%ecx, 656(%edx)
	.loc 31 239 0
	movl	%ebx, (%eax)
	movl	%esi, 4(%eax)
	.loc 31 240 0
	popl	%ebx
	.cfi_remember_state
	.cfi_restore 3
	.cfi_def_cfa_offset 12
	popl	%esi
	.cfi_restore 6
	.cfi_def_cfa_offset 8
	popl	%edi
	.cfi_restore 7
	.cfi_def_cfa_offset 4
	ret	$4
.LVL254:
	.p2align 4,,10
	.p2align 3
.L235:
	.cfi_restore_state
	.loc 31 230 0
	movl	652(%edx), %ebx
	movl	%ebx, %edx
.LVL255:
	.loc 31 233 0
	testl	%edx, %edx
	jne	.L240
.L238:
	.loc 31 227 0
	movl	%ecx, %esi
	.loc 31 239 0
	movl	%ebx, (%eax)
	movl	%esi, 4(%eax)
	.loc 31 240 0
	popl	%ebx
	.cfi_restore 3
	.cfi_def_cfa_offset 12
	popl	%esi
	.cfi_restore 6
	.cfi_def_cfa_offset 8
	popl	%edi
	.cfi_restore 7
	.cfi_def_cfa_offset 4
	ret	$4
	.cfi_endproc
.LFE807:
	.size	tcbEPDequeue, .-tcbEPDequeue
	.section	.text.unlikely
.LCOLDE60:
	.text
.LHOTE60:
	.section	.text.unlikely
.LCOLDB61:
	.text
.LHOTB61:
	.p2align 4,,15
	.globl	getExtraCPtr
	.type	getExtraCPtr, @function
getExtraCPtr:
.LFB808:
	.loc 31 244 0
	.cfi_startproc
.LVL256:
	.loc 31 245 0
	movl	8(%esp), %edx
	movl	4(%esp), %eax
	movl	488(%eax,%edx,4), %eax
	.loc 31 246 0
	ret
	.cfi_endproc
.LFE808:
	.size	getExtraCPtr, .-getExtraCPtr
	.section	.text.unlikely
.LCOLDE61:
	.text
.LHOTE61:
	.section	.text.unlikely
.LCOLDB62:
	.text
.LHOTB62:
	.p2align 4,,15
	.globl	setExtraBadge
	.type	setExtraBadge, @function
setExtraBadge:
.LFB809:
	.loc 31 251 0
	.cfi_startproc
.LVL257:
	.loc 31 252 0
	movl	12(%esp), %edx
	movl	8(%esp), %ecx
	movl	4(%esp), %eax
	movl	%ecx, 488(%eax,%edx,4)
	ret
	.cfi_endproc
.LFE809:
	.size	setExtraBadge, .-setExtraBadge
	.section	.text.unlikely
.LCOLDE62:
	.text
.LHOTE62:
	.section	.text.unlikely
.LCOLDB63:
	.text
.LHOTB63:
	.p2align 4,,15
	.globl	copyMRs
	.type	copyMRs, @function
copyMRs:
.LFB813:
	.loc 31 324 0
	.cfi_startproc
.LVL258:
	pushl	%edi
	.cfi_def_cfa_offset 8
	.cfi_offset 7, -8
	pushl	%esi
	.cfi_def_cfa_offset 12
	.cfi_offset 6, -12
	pushl	%ebx
	.cfi_def_cfa_offset 16
	.cfi_offset 3, -16
	.loc 31 324 0
	movl	32(%esp), %eax
	movl	16(%esp), %ecx
	movl	20(%esp), %ebx
	movl	24(%esp), %edx
	movl	28(%esp), %esi
	.loc 31 328 0
	testl	%eax, %eax
	je	.L251
.LVL259:
.LBB6701:
.LBB6702:
	.loc 15 30 0
	movl	532(%ecx), %edi
	movl	%edi, 532(%edx)
.LVL260:
.LBE6702:
.LBE6701:
	.loc 31 328 0
	cmpl	$1, %eax
	jbe	.L247
.LVL261:
.LBB6704:
.LBB6705:
	.loc 15 36 0
	movl	536(%ecx), %ecx
.LVL262:
.LBE6705:
.LBE6704:
.LBB6706:
.LBB6703:
	.loc 15 30 0
	movl	%ecx, 536(%edx)
.LVL263:
.LBE6703:
.LBE6706:
	.loc 31 333 0
	testl	%esi, %esi
	je	.L249
	testl	%ebx, %ebx
	je	.L249
	.loc 31 338 0 discriminator 1
	cmpl	$2, %eax
	jbe	.L249
	.loc 31 338 0 is_stmt 0 discriminator 2
	movl	$2, %edx
.LVL264:
	.p2align 4,,10
	.p2align 3
.L246:
	.loc 31 339 0 is_stmt 1 discriminator 2
	addl	$1, %edx
.LVL265:
	movl	(%ebx,%edx,4), %ecx
	movl	%ecx, (%esi,%edx,4)
.LVL266:
	.loc 31 338 0 discriminator 2
	cmpl	%edx, %eax
	jne	.L246
.LVL267:
.L251:
	.loc 31 343 0
	popl	%ebx
	.cfi_remember_state
	.cfi_restore 3
	.cfi_def_cfa_offset 12
.LVL268:
	popl	%esi
	.cfi_restore 6
	.cfi_def_cfa_offset 8
.LVL269:
	popl	%edi
	.cfi_restore 7
	.cfi_def_cfa_offset 4
	ret
.LVL270:
	.p2align 4,,10
	.p2align 3
.L247:
	.cfi_restore_state
	popl	%ebx
	.cfi_remember_state
	.cfi_restore 3
	.cfi_def_cfa_offset 12
.LVL271:
	.loc 31 328 0
	movl	$1, %eax
.LVL272:
	.loc 31 343 0
	popl	%esi
	.cfi_restore 6
	.cfi_def_cfa_offset 8
.LVL273:
	popl	%edi
	.cfi_restore 7
	.cfi_def_cfa_offset 4
	ret
.LVL274:
.L249:
	.cfi_restore_state
	.loc 31 338 0
	movl	$2, %eax
.LVL275:
	jmp	.L251
	.cfi_endproc
.LFE813:
	.size	copyMRs, .-copyMRs
	.section	.text.unlikely
.LCOLDE63:
	.text
.LHOTE63:
	.section	.text.unlikely
.LCOLDB64:
	.text
.LHOTB64:
	.p2align 4,,15
	.globl	setThreadName
	.type	setThreadName, @function
setThreadName:
.LFB833:
	.loc 31 1580 0
	.cfi_startproc
.LVL276:
	pushl	%esi
	.cfi_def_cfa_offset 8
	.cfi_offset 6, -8
	pushl	%ebx
	.cfi_def_cfa_offset 12
	.cfi_offset 3, -12
	.loc 31 1580 0
	movl	16(%esp), %ecx
	movl	12(%esp), %esi
.LVL277:
.LBB6707:
.LBB6708:
	.file 37 "/home/axjllt/Desktop/ori_refos/kernel/src/string.c"
	.loc 37 27 0
	movzbl	(%ecx), %eax
	testb	%al, %al
	je	.L266
	.loc 37 28 0
	movb	%al, 668(%esi)
	leal	668(%esi), %ebx
.LVL278:
	movl	$1, %eax
	jmp	.L260
.LVL279:
	.p2align 4,,10
	.p2align 3
.L259:
	movb	%dl, (%ebx,%eax)
.LVL280:
	addl	$1, %eax
.LVL281:
	.loc 37 27 0
	cmpl	$99, %eax
	je	.L258
.LVL282:
.L260:
	movzbl	(%ecx,%eax), %edx
	testb	%dl, %dl
	jne	.L259
.LVL283:
.L258:
	.loc 37 30 0
	movb	$0, 668(%esi,%eax)
.LVL284:
.LBE6708:
.LBE6707:
	.loc 31 1582 0
	popl	%ebx
	.cfi_remember_state
	.cfi_restore 3
	.cfi_def_cfa_offset 8
	popl	%esi
	.cfi_restore 6
	.cfi_def_cfa_offset 4
	ret
.LVL285:
.L266:
	.cfi_restore_state
.LBB6710:
.LBB6709:
	.loc 37 27 0
	xorl	%eax, %eax
	jmp	.L258
.LBE6709:
.LBE6710:
	.cfi_endproc
.LFE833:
	.size	setThreadName, .-setThreadName
	.section	.text.unlikely
.LCOLDE64:
	.text
.LHOTE64:
	.section	.boot.text
.LCOLDB65:
.LHOTB65:
	.p2align 4,,15
	.globl	platAddDevices
	.type	platAddDevices, @function
platAddDevices:
.LFB847:
	.file 38 "/home/axjllt/Desktop/ori_refos/kernel/src/plat/pc99/machine/hardware.c"
	.loc 38 23 0
	.cfi_startproc
	.loc 38 35 0
	movl	$1, %eax
	ret
	.cfi_endproc
.LFE847:
	.size	platAddDevices, .-platAddDevices
.LCOLDE65:
.LHOTE65:
	.section	.text.unlikely
.LCOLDB66:
	.text
.LHOTB66:
	.p2align 4,,15
	.globl	resetTimer
	.type	resetTimer, @function
resetTimer:
.LFB848:
	.loc 38 40 0
	.cfi_startproc
	ret
	.cfi_endproc
.LFE848:
	.size	resetTimer, .-resetTimer
	.section	.text.unlikely
.LCOLDE66:
	.text
.LHOTE66:
	.section	.text.unlikely
.LCOLDB67:
	.text
.LHOTB67:
	.p2align 4,,15
	.globl	invalidate_context_cache
	.type	invalidate_context_cache, @function
invalidate_context_cache:
.LFB857:
	.file 39 "/home/axjllt/Desktop/ori_refos/kernel/src/plat/pc99/machine/intel-vtd.c"
	.loc 39 132 0
	.cfi_startproc
.LVL286:
	.loc 39 132 0
	pushl	%edi
	.cfi_def_cfa_offset 8
	.cfi_offset 7, -8
	pushl	%esi
	.cfi_def_cfa_offset 12
	.cfi_offset 6, -12
	.loc 39 144 0
	movl	x86KSnumDrhu, %esi
	.loc 39 132 0
	pushl	%ebx
	.cfi_def_cfa_offset 16
	.cfi_offset 3, -16
	.loc 39 144 0
	testl	%esi, %esi
	je	.L269
	xorl	%edx, %edx
.LVL287:
	.p2align 4,,10
	.p2align 3
.L275:
	movl	%edx, %edi
	sall	$12, %edi
	leal	-57304(%edi), %eax
	.p2align 4,,10
	.p2align 3
.L271:
.LVL288:
.LBB6711:
.LBB6712:
.LBB6713:
	.loc 39 105 0 discriminator 1
	movl	(%eax), %ecx
	movl	4(%eax), %ebx
.LVL289:
.LBE6713:
.LBE6712:
	.loc 39 147 0 discriminator 1
	testl	%ebx, %ebx
	js	.L271
.LVL290:
.LBB6714:
.LBB6715:
	.loc 39 110 0
	movl	$0, -57304(%edi)
	movl	$-1610612736, -57300(%edi)
	.p2align 4,,10
	.p2align 3
.L272:
.LVL291:
.LBE6715:
.LBE6714:
.LBB6716:
.LBB6717:
	.loc 39 105 0 discriminator 1
	movl	(%eax), %ecx
	movl	4(%eax), %ebx
.LVL292:
.LBE6717:
.LBE6716:
	.loc 39 158 0 discriminator 1
	testl	%ebx, %ebx
	js	.L272
.LBE6711:
	.loc 39 144 0 discriminator 2
	addl	$1, %edx
.LVL293:
	cmpl	%esi, %edx
	jne	.L275
.LVL294:
.L269:
	.loc 39 160 0
	popl	%ebx
	.cfi_restore 3
	.cfi_def_cfa_offset 12
	popl	%esi
	.cfi_restore 6
	.cfi_def_cfa_offset 8
	popl	%edi
	.cfi_restore 7
	.cfi_def_cfa_offset 4
	ret
	.cfi_endproc
.LFE857:
	.size	invalidate_context_cache, .-invalidate_context_cache
	.section	.text.unlikely
.LCOLDE67:
	.text
.LHOTE67:
	.section	.text.unlikely
.LCOLDB68:
	.text
.LHOTB68:
	.p2align 4,,15
	.globl	invalidate_iotlb
	.type	invalidate_iotlb, @function
invalidate_iotlb:
.LFB858:
	.loc 39 163 0
	.cfi_startproc
.LVL295:
	.loc 39 178 0
	movl	x86KSnumDrhu, %eax
	testl	%eax, %eax
	je	.L292
	.loc 39 163 0
	pushl	%esi
	.cfi_def_cfa_offset 8
	.cfi_offset 6, -8
	pushl	%ebx
	.cfi_def_cfa_offset 12
	.cfi_offset 3, -12
	xorl	%ebx, %ebx
.LVL296:
	.p2align 4,,10
	.p2align 3
.L286:
.LBB6718:
.LBB6719:
.LBB6720:
.LBB6721:
	.loc 39 94 0
	movl	%ebx, %esi
	sall	$12, %esi
	movl	-57328(%esi), %ecx
.LVL297:
.LBE6721:
.LBE6720:
	.loc 39 115 0
	shrl	$4, %ecx
	andl	$16368, %ecx
.LVL298:
	leal	-57332(%esi,%ecx), %eax
	.p2align 4,,10
	.p2align 3
.L282:
.LVL299:
.LBE6719:
.LBE6718:
.LBB6722:
.LBB6723:
	.loc 39 94 0 discriminator 1
	movl	(%eax), %edx
.LVL300:
.LBE6723:
.LBE6722:
	.loc 39 182 0 discriminator 1
	testl	%edx, %edx
	js	.L282
.LVL301:
.LBB6724:
.LBB6725:
	.loc 39 99 0
	leal	-57336(%esi,%ecx), %edx
	movl	$0, (%edx)
.LVL302:
.LBE6725:
.LBE6724:
.LBB6726:
.LBB6727:
	movl	$-1878851584, (%eax)
	.p2align 4,,10
	.p2align 3
.L283:
.LVL303:
.LBE6727:
.LBE6726:
.LBB6728:
.LBB6729:
	.loc 39 94 0 discriminator 1
	movl	(%eax), %edx
.LVL304:
.LBE6729:
.LBE6728:
	.loc 39 197 0 discriminator 1
	testl	%edx, %edx
	js	.L283
	.loc 39 178 0 discriminator 2
	addl	$1, %ebx
.LVL305:
	cmpl	%ebx, x86KSnumDrhu
	ja	.L286
	.loc 39 199 0
	popl	%ebx
	.cfi_restore 3
	.cfi_def_cfa_offset 8
.LVL306:
	popl	%esi
	.cfi_restore 6
	.cfi_def_cfa_offset 4
.LVL307:
.L292:
	ret
	.cfi_endproc
.LFE858:
	.size	invalidate_iotlb, .-invalidate_iotlb
	.section	.text.unlikely
.LCOLDE68:
	.text
.LHOTE68:
	.section	.text.unlikely
.LCOLDB69:
	.text
.LHOTB69:
	.p2align 4,,15
	.globl	serial_init
	.type	serial_init, @function
serial_init:
.LFB867:
	.file 40 "/home/axjllt/Desktop/ori_refos/kernel/src/plat/pc99/machine/io.c"
	.loc 40 20 0
	.cfi_startproc
.LVL308:
	pushl	%ebp
	.cfi_def_cfa_offset 8
	.cfi_offset 5, -8
	pushl	%edi
	.cfi_def_cfa_offset 12
	.cfi_offset 7, -12
	pushl	%esi
	.cfi_def_cfa_offset 16
	.cfi_offset 6, -16
	pushl	%ebx
	.cfi_def_cfa_offset 20
	.cfi_offset 3, -20
	subl	$28, %esp
	.cfi_def_cfa_offset 48
	.loc 40 20 0
	movl	48(%esp), %esi
	leal	5(%esi), %ebx
	movzwl	%bx, %ebx
	.p2align 4,,10
	.p2align 3
.L294:
	.loc 40 21 0 discriminator 1
	subl	$12, %esp
	.cfi_def_cfa_offset 60
	pushl	%ebx
	.cfi_def_cfa_offset 64
	call	in8
.LVL309:
	addl	$16, %esp
	.cfi_def_cfa_offset 48
	testb	$96, %al
	je	.L294
	.loc 40 23 0
	leal	1(%esi), %ebp
	subl	$8, %esp
	.cfi_def_cfa_offset 56
	pushl	$0
	.cfi_def_cfa_offset 60
	.loc 40 24 0
	leal	3(%esi), %edi
	.loc 40 23 0
	movzwl	%bp, %ebp
	pushl	%ebp
	.cfi_def_cfa_offset 64
	.loc 40 24 0
	movzwl	%di, %edi
	.loc 40 23 0
	call	out8
.LVL310:
	.loc 40 24 0
	popl	%eax
	.cfi_def_cfa_offset 60
	popl	%edx
	.cfi_def_cfa_offset 56
	pushl	$128
	.cfi_def_cfa_offset 60
	pushl	%edi
	.cfi_def_cfa_offset 64
	call	out8
.LVL311:
	.loc 40 25 0
	popl	%ecx
	.cfi_def_cfa_offset 60
	movzwl	%si, %edx
	popl	%eax
	.cfi_def_cfa_offset 56
	pushl	$1
	.cfi_def_cfa_offset 60
	pushl	%edx
	.cfi_def_cfa_offset 64
	movl	%edx, 28(%esp)
	call	out8
.LVL312:
	.loc 40 26 0
	popl	%eax
	.cfi_def_cfa_offset 60
	popl	%edx
	.cfi_def_cfa_offset 56
	pushl	$0
	.cfi_def_cfa_offset 60
	pushl	%ebp
	.cfi_def_cfa_offset 64
	call	out8
.LVL313:
	.loc 40 27 0
	popl	%ecx
	.cfi_def_cfa_offset 60
	popl	%ebp
	.cfi_def_cfa_offset 56
	pushl	$3
	.cfi_def_cfa_offset 60
	pushl	%edi
	.cfi_def_cfa_offset 64
	call	out8
.LVL314:
	.loc 40 28 0
	popl	%eax
	.cfi_def_cfa_offset 60
	leal	4(%esi), %eax
	.loc 40 32 0
	addl	$6, %esi
	.loc 40 28 0
	popl	%edx
	.cfi_def_cfa_offset 56
	movzwl	%ax, %eax
	pushl	$11
	.cfi_def_cfa_offset 60
	.loc 40 32 0
	movzwl	%si, %esi
	.loc 40 28 0
	pushl	%eax
	.cfi_def_cfa_offset 64
	call	out8
.LVL315:
	.loc 40 30 0
	movl	28(%esp), %edx
	movl	%edx, (%esp)
	call	in8
.LVL316:
	.loc 40 31 0
	movl	%ebx, (%esp)
	call	in8
.LVL317:
	.loc 40 32 0
	movl	%esi, 64(%esp)
	.loc 40 33 0
	addl	$44, %esp
	.cfi_def_cfa_offset 20
	popl	%ebx
	.cfi_restore 3
	.cfi_def_cfa_offset 16
	popl	%esi
	.cfi_restore 6
	.cfi_def_cfa_offset 12
	popl	%edi
	.cfi_restore 7
	.cfi_def_cfa_offset 8
	popl	%ebp
	.cfi_restore 5
	.cfi_def_cfa_offset 4
	.loc 40 32 0
	jmp	in8
.LVL318:
	.cfi_endproc
.LFE867:
	.size	serial_init, .-serial_init
	.section	.text.unlikely
.LCOLDE69:
	.text
.LHOTE69:
	.section	.text.unlikely
.LCOLDB70:
	.text
.LHOTB70:
	.p2align 4,,15
	.globl	putConsoleChar
	.type	putConsoleChar, @function
putConsoleChar:
.LFB868:
	.loc 40 39 0
	.cfi_startproc
.LVL319:
	pushl	%ebx
	.cfi_def_cfa_offset 8
	.cfi_offset 3, -8
	subl	$8, %esp
	.cfi_def_cfa_offset 16
	.loc 40 39 0
	movl	16(%esp), %ebx
	.loc 40 40 0
	jmp	.L300
	.p2align 4,,10
	.p2align 3
.L308:
	.loc 40 40 0 is_stmt 0 discriminator 1
	addl	$5, %eax
	subl	$12, %esp
	.cfi_def_cfa_offset 28
	movzwl	%ax, %eax
	pushl	%eax
	.cfi_def_cfa_offset 32
	call	in8
.LVL320:
	addl	$16, %esp
	.cfi_def_cfa_offset 16
	testb	$32, %al
	jne	.L307
.L300:
	.loc 40 40 0 discriminator 2
	movzwl	x86KSconsolePort, %eax
	testw	%ax, %ax
	jne	.L308
.L299:
	.loc 40 41 0 is_stmt 1
	subl	$8, %esp
	.cfi_def_cfa_offset 24
	movzbl	%bl, %ebx
	pushl	%ebx
	.cfi_def_cfa_offset 28
	pushl	%eax
	.cfi_def_cfa_offset 32
	call	out8
.LVL321:
	.loc 40 42 0
	addl	$24, %esp
	.cfi_def_cfa_offset 8
	popl	%ebx
	.cfi_restore 3
	.cfi_def_cfa_offset 4
	ret
	.p2align 4,,10
	.p2align 3
.L307:
	.cfi_def_cfa_offset 16
	.cfi_offset 3, -8
	movzwl	x86KSconsolePort, %eax
	jmp	.L299
	.cfi_endproc
.LFE868:
	.size	putConsoleChar, .-putConsoleChar
	.section	.text.unlikely
.LCOLDE70:
	.text
.LHOTE70:
	.section	.text.unlikely
.LCOLDB71:
	.text
.LHOTB71:
	.p2align 4,,15
	.globl	putchar
	.type	putchar, @function
putchar:
.LFB709:
	.file 41 "/home/axjllt/Desktop/ori_refos/kernel/src/machine/io.c"
	.loc 41 20 0
	.cfi_startproc
.LVL322:
	pushl	%ebx
	.cfi_def_cfa_offset 8
	.cfi_offset 3, -8
	subl	$20, %esp
	.cfi_def_cfa_offset 28
	.loc 41 20 0
	movl	28(%esp), %ebx
	.loc 41 21 0
	movzbl	%bl, %eax
	pushl	%eax
	.cfi_def_cfa_offset 32
	call	putConsoleChar
.LVL323:
	.loc 41 22 0
	addl	$16, %esp
	.cfi_def_cfa_offset 16
	cmpb	$10, %bl
	je	.L312
	.loc 41 25 0
	addl	$8, %esp
	.cfi_remember_state
	.cfi_def_cfa_offset 8
	popl	%ebx
	.cfi_restore 3
	.cfi_def_cfa_offset 4
	ret
	.p2align 4,,10
	.p2align 3
.L312:
	.cfi_restore_state
	.loc 41 23 0
	movl	$13, 16(%esp)
	.loc 41 25 0
	addl	$8, %esp
	.cfi_def_cfa_offset 8
	popl	%ebx
	.cfi_restore 3
	.cfi_def_cfa_offset 4
	.loc 41 23 0
	jmp	putConsoleChar
.LVL324:
	.cfi_endproc
.LFE709:
	.size	putchar, .-putchar
	.section	.text.unlikely
.LCOLDE71:
	.text
.LHOTE71:
	.section	.text.unlikely
.LCOLDB72:
	.text
.LHOTB72:
	.p2align 4,,15
	.type	print_unsigned_long.part.57, @function
print_unsigned_long.part.57:
.LFB952:
	.loc 41 76 0
	.cfi_startproc
.LVL325:
	pushl	%ebp
	.cfi_def_cfa_offset 8
	.cfi_offset 5, -8
	pushl	%edi
	.cfi_def_cfa_offset 12
	.cfi_offset 7, -12
	pushl	%esi
	.cfi_def_cfa_offset 16
	.cfi_offset 6, -16
	pushl	%ebx
	.cfi_def_cfa_offset 20
	.cfi_offset 3, -20
	subl	$28, %esp
	.cfi_def_cfa_offset 48
	.loc 41 95 0
	testl	%eax, %eax
	je	.L326
	movl	%eax, %ecx
	movl	%edx, %ebx
.LVL326:
.LBB6730:
.LBB6731:
	.loc 41 65 0
	cmpl	$10, %edx
	je	.L328
	cmpl	$16, %edx
	je	.L348
	movl	$1, %edi
	movl	$48, %eax
.LVL327:
	xorl	%ebp, %ebp
.LVL328:
.L315:
.LBE6731:
.LBE6730:
	.loc 41 98 0
	movl	%edi, %esi
.L325:
	.loc 41 101 0
	movb	%al, 5(%esp,%ebp)
.LVL329:
.LBB6734:
.LBB6735:
	.loc 41 52 0
	cmpl	$10, %ebx
	jne	.L349
.LVL330:
	.loc 41 56 0
	movl	%ecx, %eax
	movl	$-858993459, %edx
	mull	%edx
.LVL331:
.LBE6735:
.LBE6734:
	.loc 41 95 0
	movl	%edx, %ecx
	shrl	$3, %ecx
.LVL332:
	je	.L321
	leal	1(%esi), %edi
.LVL333:
	movl	%esi, %ebp
.LVL334:
.L316:
	movl	%ecx, %eax
	movl	$-858993459, %edx
	movl	%ecx, %esi
	mull	%edx
	shrl	$3, %edx
	leal	(%edx,%edx,4), %eax
	addl	%eax, %eax
	subl	%eax, %esi
	movl	%esi, %eax
	addl	$48, %eax
	jmp	.L315
.LVL335:
	.p2align 4,,10
	.p2align 3
.L349:
.LBB6737:
.LBB6736:
	.loc 41 52 0
	cmpl	$16, %ebx
	je	.L320
.LVL336:
.L321:
.LBE6736:
.LBE6737:
	.loc 41 105 0
	testl	%esi, %esi
	je	.L334
	movl	%esi, %ebx
.LVL337:
	jmp	.L324
.LVL338:
	.p2align 4,,10
	.p2align 3
.L323:
	testl	%ebx, %ebx
	je	.L334
.LVL339:
.L324:
	.loc 41 106 0
	subl	$1, %ebx
.LVL340:
.LBB6738:
.LBB6739:
	.loc 41 21 0
	subl	$12, %esp
	.cfi_def_cfa_offset 60
.LBE6739:
.LBE6738:
	.loc 41 106 0
	movzbl	17(%esp,%ebx), %edi
.LVL341:
.LBB6741:
.LBB6740:
	.loc 41 21 0
	movl	%edi, %eax
	movzbl	%al, %eax
	pushl	%eax
	.cfi_def_cfa_offset 64
	call	putConsoleChar
.LVL342:
	.loc 41 22 0
	movl	%edi, %eax
	addl	$16, %esp
	.cfi_def_cfa_offset 48
	cmpb	$10, %al
	jne	.L323
	.loc 41 23 0
	subl	$12, %esp
	.cfi_def_cfa_offset 60
	pushl	$13
	.cfi_def_cfa_offset 64
	call	putConsoleChar
.LVL343:
	addl	$16, %esp
	.cfi_def_cfa_offset 48
.LVL344:
.LBE6740:
.LBE6741:
	.loc 41 105 0
	testl	%ebx, %ebx
	jne	.L324
.LVL345:
.L334:
	.loc 41 110 0
	addl	$28, %esp
	.cfi_remember_state
	.cfi_def_cfa_offset 20
	movl	%esi, %eax
	popl	%ebx
	.cfi_restore 3
	.cfi_def_cfa_offset 16
	popl	%esi
	.cfi_restore 6
	.cfi_def_cfa_offset 12
	popl	%edi
	.cfi_restore 7
	.cfi_def_cfa_offset 8
	popl	%ebp
	.cfi_restore 5
	.cfi_def_cfa_offset 4
	ret
.LVL346:
	.p2align 4,,10
	.p2align 3
.L318:
	.cfi_restore_state
	.loc 41 99 0
	addl	$87, %eax
	movb	%al, 5(%esp,%esi)
.LVL347:
	movl	%edx, %esi
.LVL348:
.L320:
	.loc 41 95 0
	shrl	$4, %ecx
.LVL349:
	je	.L321
	leal	1(%esi), %edx
.L317:
.LVL350:
.LBB6742:
.LBB6732:
	.loc 41 67 0
	movl	%ecx, %eax
	andl	$15, %eax
.LVL351:
.LBE6732:
.LBE6742:
	.loc 41 98 0
	cmpl	$9, %eax
	ja	.L318
	movl	%esi, %ebp
	addl	$48, %eax
	movl	%edx, %esi
.LVL352:
	jmp	.L325
.LVL353:
	.p2align 4,,10
	.p2align 3
.L326:
	.loc 41 95 0
	xorl	%esi, %esi
	jmp	.L334
.LVL354:
.L328:
.LBB6743:
.LBB6733:
	.loc 41 65 0
	movl	$1, %edi
	xorl	%ebp, %ebp
	jmp	.L316
.L348:
	movl	$1, %edx
.LVL355:
	xorl	%esi, %esi
	jmp	.L317
.LBE6733:
.LBE6743:
	.cfi_endproc
.LFE952:
	.size	print_unsigned_long.part.57, .-print_unsigned_long.part.57
	.section	.text.unlikely
.LCOLDE72:
	.text
.LHOTE72:
	.section	.text.unlikely
.LCOLDB73:
	.text
.LHOTB73:
	.p2align 4,,15
	.globl	print_unsigned_long
	.type	print_unsigned_long, @function
print_unsigned_long:
.LFB714:
	.loc 41 77 0
	.cfi_startproc
.LVL356:
	subl	$12, %esp
	.cfi_def_cfa_offset 16
	.loc 41 77 0
	movl	20(%esp), %edx
	movl	16(%esp), %ecx
	.loc 41 86 0
	cmpl	$10, %edx
	je	.L355
	.loc 41 87 0
	xorl	%eax, %eax
	.loc 41 86 0
	cmpl	$16, %edx
	je	.L355
	.loc 41 110 0
	addl	$12, %esp
	.cfi_remember_state
	.cfi_def_cfa_offset 4
	ret
	.p2align 4,,10
	.p2align 3
.L355:
	.cfi_restore_state
	.loc 41 90 0
	testl	%ecx, %ecx
	je	.L353
	movl	%ecx, %eax
	.loc 41 110 0 discriminator 1
	addl	$12, %esp
	.cfi_remember_state
	.cfi_def_cfa_offset 4
	jmp	print_unsigned_long.part.57
.LVL357:
	.p2align 4,,10
	.p2align 3
.L353:
	.cfi_restore_state
.LBB6744:
.LBB6745:
	.loc 41 21 0
	subl	$12, %esp
	.cfi_def_cfa_offset 28
	pushl	$48
	.cfi_def_cfa_offset 32
	call	putConsoleChar
.LVL358:
.LBE6745:
.LBE6744:
	.loc 41 92 0
	addl	$16, %esp
	.cfi_def_cfa_offset 16
	movl	$1, %eax
	.loc 41 110 0
	addl	$12, %esp
	.cfi_def_cfa_offset 4
	ret
	.cfi_endproc
.LFE714:
	.size	print_unsigned_long, .-print_unsigned_long
	.section	.text.unlikely
.LCOLDE73:
	.text
.LHOTE73:
	.section	.text.unlikely
.LCOLDB74:
	.text
.LHOTB74:
	.p2align 4,,15
	.globl	puts
	.type	puts, @function
puts:
.LFB719:
	.loc 41 300 0
	.cfi_startproc
.LVL359:
	pushl	%esi
	.cfi_def_cfa_offset 8
	.cfi_offset 6, -8
	pushl	%ebx
	.cfi_def_cfa_offset 12
	.cfi_offset 3, -12
	subl	$4, %esp
	.cfi_def_cfa_offset 16
	.loc 41 300 0
	movl	16(%esp), %esi
.LVL360:
	.loc 41 301 0
	movzbl	(%esi), %ebx
	testb	%bl, %bl
	jne	.L365
	jmp	.L364
.LVL361:
	.p2align 4,,10
	.p2align 3
.L362:
	.loc 41 301 0 is_stmt 0 discriminator 2
	addl	$1, %esi
.LVL362:
	movzbl	(%esi), %ebx
	testb	%bl, %bl
	je	.L364
.L365:
.LVL363:
.LBB6746:
.LBB6747:
	.loc 41 21 0 is_stmt 1 discriminator 2
	subl	$12, %esp
	.cfi_def_cfa_offset 28
	movzbl	%bl, %eax
	pushl	%eax
	.cfi_def_cfa_offset 32
	call	putConsoleChar
.LVL364:
	.loc 41 22 0 discriminator 2
	addl	$16, %esp
	.cfi_def_cfa_offset 16
	cmpb	$10, %bl
	jne	.L362
	.loc 41 23 0
	subl	$12, %esp
	.cfi_def_cfa_offset 28
.LBE6747:
.LBE6746:
	.loc 41 301 0
	addl	$1, %esi
.LVL365:
.LBB6750:
.LBB6748:
	.loc 41 23 0
	pushl	$13
	.cfi_def_cfa_offset 32
	call	putConsoleChar
.LVL366:
.LBE6748:
.LBE6750:
	.loc 41 301 0
	movzbl	(%esi), %ebx
.LVL367:
.LBB6751:
.LBB6749:
	.loc 41 23 0
	addl	$16, %esp
	.cfi_def_cfa_offset 16
.LVL368:
.LBE6749:
.LBE6751:
	.loc 41 301 0
	testb	%bl, %bl
	jne	.L365
.L364:
.LVL369:
.LBB6752:
.LBB6753:
	.loc 41 21 0
	subl	$12, %esp
	.cfi_def_cfa_offset 28
	pushl	$10
	.cfi_def_cfa_offset 32
	call	putConsoleChar
.LVL370:
	.loc 41 23 0
	movl	$13, (%esp)
	call	putConsoleChar
.LVL371:
.LBE6753:
.LBE6752:
	.loc 41 306 0
	addl	$20, %esp
	.cfi_def_cfa_offset 12
	xorl	%eax, %eax
	popl	%ebx
	.cfi_restore 3
	.cfi_def_cfa_offset 8
	popl	%esi
	.cfi_restore 6
	.cfi_def_cfa_offset 4
.LVL372:
	ret
	.cfi_endproc
.LFE719:
	.size	puts, .-puts
	.section	.text.unlikely
.LCOLDE74:
	.text
.LHOTE74:
	.section	.text.unlikely
.LCOLDB75:
	.text
.LHOTB75:
	.p2align 4,,15
	.type	print_string, @function
print_string:
.LFB711:
	.loc 41 39 0
	.cfi_startproc
.LVL373:
	pushl	%edi
	.cfi_def_cfa_offset 8
	.cfi_offset 7, -8
	pushl	%esi
	.cfi_def_cfa_offset 12
	.cfi_offset 6, -12
	pushl	%ebx
	.cfi_def_cfa_offset 16
	.cfi_offset 3, -16
	.loc 41 42 0
	movzbl	(%eax), %ebx
	testb	%bl, %bl
	je	.L373
	movl	%eax, %edi
	.loc 41 42 0 is_stmt 0 discriminator 3
	xorl	%esi, %esi
	jmp	.L372
.LVL374:
	.p2align 4,,10
	.p2align 3
.L371:
	addl	$1, %esi
.LVL375:
	movzbl	(%edi,%esi), %ebx
	testb	%bl, %bl
	je	.L370
.LVL376:
.L372:
.LBB6754:
.LBB6755:
	.loc 41 21 0 is_stmt 1 discriminator 3
	subl	$12, %esp
	.cfi_def_cfa_offset 28
	movzbl	%bl, %edx
	pushl	%edx
	.cfi_def_cfa_offset 32
	call	putConsoleChar
.LVL377:
	.loc 41 22 0 discriminator 3
	addl	$16, %esp
	.cfi_def_cfa_offset 16
	cmpb	$10, %bl
	jne	.L371
	.loc 41 23 0
	subl	$12, %esp
	.cfi_def_cfa_offset 28
.LBE6755:
.LBE6754:
	.loc 41 42 0
	addl	$1, %esi
.LVL378:
.LBB6758:
.LBB6756:
	.loc 41 23 0
	pushl	$13
	.cfi_def_cfa_offset 32
	call	putConsoleChar
.LVL379:
.LBE6756:
.LBE6758:
	.loc 41 42 0
	movzbl	(%edi,%esi), %ebx
.LVL380:
.LBB6759:
.LBB6757:
	.loc 41 23 0
	addl	$16, %esp
	.cfi_def_cfa_offset 16
.LVL381:
.LBE6757:
.LBE6759:
	.loc 41 42 0
	testb	%bl, %bl
	jne	.L372
.LVL382:
.L370:
	.loc 41 47 0
	movl	%esi, %eax
	popl	%ebx
	.cfi_remember_state
	.cfi_restore 3
	.cfi_def_cfa_offset 12
	popl	%esi
	.cfi_restore 6
	.cfi_def_cfa_offset 8
	popl	%edi
	.cfi_restore 7
	.cfi_def_cfa_offset 4
	ret
.LVL383:
.L373:
	.cfi_restore_state
	.loc 41 42 0
	xorl	%esi, %esi
	jmp	.L370
	.cfi_endproc
.LFE711:
	.size	print_string, .-print_string
	.section	.text.unlikely
.LCOLDE75:
	.text
.LHOTE75:
	.section	.rodata.str1.1,"aMS",@progbits,1
.LC76:
	.string	"(nil)"
.LC77:
	.string	"0x"
	.section	.text.unlikely
.LCOLDB78:
	.text
.LHOTB78:
	.p2align 4,,15
	.globl	kprintf
	.type	kprintf, @function
kprintf:
.LFB720:
	.loc 41 310 0
	.cfi_startproc
.LVL384:
	pushl	%ebp
	.cfi_def_cfa_offset 8
	.cfi_offset 5, -8
	pushl	%edi
	.cfi_def_cfa_offset 12
	.cfi_offset 7, -12
	pushl	%esi
	.cfi_def_cfa_offset 16
	.cfi_offset 6, -16
	pushl	%ebx
	.cfi_def_cfa_offset 20
	.cfi_offset 3, -20
	subl	$28, %esp
	.cfi_def_cfa_offset 48
.LVL385:
	.loc 41 310 0
	movl	48(%esp), %ebx
.LVL386:
.LBB6813:
.LBB6814:
	.loc 41 173 0
	testl	%ebx, %ebx
	je	.L425
	leal	52(%esp), %edi
.LVL387:
	xorl	%esi, %esi
	movl	$0, (%esp)
.LVL388:
	.p2align 4,,10
	.p2align 3
.L378:
	.loc 41 179 0
	movsbl	(%ebx), %eax
	testb	%al, %al
	je	.L443
.L424:
	.loc 41 180 0
	testl	%esi, %esi
	je	.L379
	xorl	%esi, %esi
.LVL389:
	jmp	.L380
.LVL390:
	.p2align 4,,10
	.p2align 3
.L382:
	.loc 41 182 0
	leal	(%esi,%esi,4), %edx
.LVL391:
	.loc 41 184 0
	addl	$1, %ebx
.LVL392:
	.loc 41 182 0
	leal	-48(%eax,%edx,2), %esi
.LVL393:
	.loc 41 184 0
	je	.L381
	movsbl	(%ebx), %eax
.LVL394:
.L380:
	.loc 41 181 0
	leal	-48(%eax), %edx
	cmpb	$9, %dl
	jbe	.L382
	.loc 41 188 0
	cmpb	$112, %al
	je	.L383
	jg	.L384
	cmpb	$100, %al
	je	.L385
	cmpb	$108, %al
	je	.L386
	cmpb	$37, %al
	je	.L444
.LVL395:
.L427:
.LBE6814:
.LBE6813:
	.loc 41 318 0
	addl	$28, %esp
	.cfi_remember_state
	.cfi_def_cfa_offset 20
.LVL396:
.LBB6877:
.LBB6872:
	.loc 41 238 0
	movl	$-1, %eax
.LVL397:
.LBE6872:
.LBE6877:
	.loc 41 318 0
	popl	%ebx
	.cfi_restore 3
	.cfi_def_cfa_offset 16
	popl	%esi
	.cfi_restore 6
	.cfi_def_cfa_offset 12
	popl	%edi
	.cfi_restore 7
	.cfi_def_cfa_offset 8
	popl	%ebp
	.cfi_restore 5
	.cfi_def_cfa_offset 4
	ret
.LVL398:
.L444:
	.cfi_restore_state
.LBB6878:
.LBB6873:
.LBB6815:
.LBB6816:
	.loc 41 21 0
	subl	$12, %esp
	.cfi_def_cfa_offset 60
.LVL399:
.LBE6816:
.LBE6815:
	.loc 41 192 0
	addl	$1, %ebx
.LVL400:
.LBB6818:
.LBB6817:
	.loc 41 21 0
	pushl	$37
	.cfi_def_cfa_offset 64
	call	putConsoleChar
.LVL401:
.LBE6817:
.LBE6818:
	.loc 41 191 0
	movl	16(%esp), %eax
	.loc 41 192 0
	addl	$16, %esp
	.cfi_def_cfa_offset 48
.LVL402:
	.loc 41 191 0
	addl	$1, %eax
.LVL403:
	.p2align 4,,10
	.p2align 3
.L391:
	.loc 41 277 0
	movl	%esi, (%esp)
	subl	%eax, %esi
.LVL404:
.LBB6819:
.LBB6820:
	.loc 41 30 0
	testl	%esi, %esi
	jle	.L430
	xorl	%ebp, %ebp
.LVL405:
	.p2align 4,,10
	.p2align 3
.L420:
.LBB6821:
.LBB6822:
	.loc 41 21 0
	subl	$12, %esp
	.cfi_def_cfa_offset 60
.LBE6822:
.LBE6821:
	.loc 41 30 0
	addl	$1, %ebp
.LVL406:
.LBB6824:
.LBB6823:
	.loc 41 21 0
	pushl	$32
	.cfi_def_cfa_offset 64
	call	putConsoleChar
.LVL407:
.LBE6823:
.LBE6824:
	.loc 41 30 0
	addl	$16, %esp
	.cfi_def_cfa_offset 48
	cmpl	%ebp, %esi
	jne	.L420
.LVL408:
.L430:
.LBE6820:
.LBE6819:
	.loc 41 179 0
	movsbl	(%ebx), %eax
	.loc 41 279 0
	xorl	%esi, %esi
.LVL409:
	.loc 41 179 0
	testb	%al, %al
	jne	.L424
.L443:
	.loc 41 296 0
	movl	(%esp), %eax
.LBE6873:
.LBE6878:
	.loc 41 318 0
	addl	$28, %esp
	.cfi_remember_state
	.cfi_def_cfa_offset 20
.LVL410:
	popl	%ebx
	.cfi_restore 3
	.cfi_def_cfa_offset 16
.LVL411:
	popl	%esi
	.cfi_restore 6
	.cfi_def_cfa_offset 12
.LVL412:
	popl	%edi
	.cfi_restore 7
	.cfi_def_cfa_offset 8
.LVL413:
	popl	%ebp
	.cfi_restore 5
	.cfi_def_cfa_offset 4
	ret
.LVL414:
	.p2align 4,,10
	.p2align 3
.L379:
	.cfi_restore_state
.LBB6879:
.LBB6874:
	.loc 41 281 0
	cmpb	$37, %al
	jne	.L433
.LVL415:
	.loc 41 284 0
	addl	$1, %ebx
.LVL416:
	.loc 41 283 0
	movl	$1, %esi
	jmp	.L378
.LVL417:
	.p2align 4,,10
	.p2align 3
.L381:
	.loc 41 188 0
	movzbl	0, %eax
.LVL418:
	ud2
.LVL419:
	.p2align 4,,10
	.p2align 3
.L384:
	cmpb	$117, %al
	je	.L388
	cmpb	$120, %al
	je	.L389
	cmpb	$115, %al
	jne	.L427
	.loc 41 232 0
	movl	(%edi), %eax
	leal	4(%edi), %ebp
.LVL420:
	call	print_string
.LVL421:
.L438:
.LBB6825:
	.loc 41 225 0
	addl	(%esp), %eax
.LVL422:
.L401:
	.loc 41 227 0
	addl	$1, %ebx
.LVL423:
	.loc 41 220 0
	movl	%ebp, %edi
	jmp	.L391
.LVL424:
	.p2align 4,,10
	.p2align 3
.L433:
.LBE6825:
.LBB6830:
.LBB6831:
	.loc 41 21 0
	subl	$12, %esp
	.cfi_def_cfa_offset 60
.LVL425:
	movzbl	%al, %edx
	movb	%al, 16(%esp)
	pushl	%edx
	.cfi_def_cfa_offset 64
	call	putConsoleChar
.LVL426:
	.loc 41 22 0
	addl	$16, %esp
	.cfi_def_cfa_offset 48
.LVL427:
	movzbl	4(%esp), %eax
	cmpb	$10, %al
	je	.L445
.L423:
.LVL428:
.LBE6831:
.LBE6830:
	.loc 41 289 0
	addl	$1, (%esp)
.LVL429:
	.loc 41 290 0
	addl	$1, %ebx
.LVL430:
	jmp	.L378
.LVL431:
	.p2align 4,,10
	.p2align 3
.L383:
.LBB6833:
	.loc 41 220 0
	leal	4(%edi), %ebp
.LVL432:
	movl	(%edi), %edi
.LVL433:
	.loc 41 221 0
	testl	%edi, %edi
	jne	.L400
	.loc 41 222 0
	movl	$.LC76, %eax
	call	print_string
.LVL434:
	addl	(%esp), %eax
.LVL435:
	jmp	.L401
.LVL436:
	.p2align 4,,10
	.p2align 3
.L389:
.LBE6833:
	.loc 41 215 0
	movl	(%edi), %eax
	leal	4(%edi), %ebp
.LVL437:
.LBB6834:
.LBB6835:
	.loc 41 90 0
	testl	%eax, %eax
	jne	.L446
.LVL438:
.L398:
.LBB6836:
.LBB6837:
	.loc 41 21 0
	subl	$12, %esp
	.cfi_def_cfa_offset 60
.LVL439:
	pushl	$48
	.cfi_def_cfa_offset 64
	call	putConsoleChar
.LVL440:
	addl	$16, %esp
	.cfi_def_cfa_offset 48
.LVL441:
.LBE6837:
.LBE6836:
	.loc 41 92 0
	movl	$1, %eax
	jmp	.L438
.LVL442:
	.p2align 4,,10
	.p2align 3
.L388:
.LBE6835:
.LBE6834:
	.loc 41 210 0
	movl	(%edi), %eax
	leal	4(%edi), %ebp
.LVL443:
.LBB6839:
.LBB6840:
	.loc 41 90 0
	testl	%eax, %eax
	je	.L398
.LVL444:
.L439:
	movl	$10, %edx
	call	print_unsigned_long.part.57
.LVL445:
	jmp	.L438
.LVL446:
	.p2align 4,,10
	.p2align 3
.L386:
.LBE6840:
.LBE6839:
	.loc 41 238 0
	movzbl	1(%ebx), %eax
	cmpb	$108, %al
	je	.L402
	jle	.L447
	cmpb	$117, %al
	je	.L405
	cmpb	$120, %al
	jne	.L427
	.loc 41 263 0
	movl	(%edi), %eax
	leal	4(%edi), %ebp
.LVL447:
.LBB6841:
.LBB6842:
	.loc 41 90 0
	testl	%eax, %eax
	je	.L417
	movl	$16, %edx
	call	print_unsigned_long.part.57
.LVL448:
.L418:
.LBE6842:
.LBE6841:
	.loc 41 263 0
	addl	(%esp), %eax
.LVL449:
	.loc 41 264 0
	addl	$2, %ebx
.LVL450:
	.loc 41 263 0
	movl	%ebp, %edi
	jmp	.L391
.LVL451:
	.p2align 4,,10
	.p2align 3
.L385:
.LBB6846:
	.loc 41 196 0
	leal	4(%edi), %ebp
.LVL452:
	movl	(%edi), %edi
.LVL453:
	.loc 41 198 0
	testl	%edi, %edi
	js	.L448
.LVL454:
	.loc 41 204 0
	movl	%edi, %eax
.LBB6847:
.LBB6848:
	.loc 41 90 0
	je	.L398
	jmp	.L439
.LVL455:
.L446:
.LBE6848:
.LBE6847:
.LBE6846:
.LBB6851:
.LBB6838:
	movl	$16, %edx
	call	print_unsigned_long.part.57
.LVL456:
	jmp	.L438
.LVL457:
.L400:
.LBE6838:
.LBE6851:
.LBB6852:
	.loc 41 224 0
	movl	$.LC77, %eax
	call	print_string
.LVL458:
.LBB6826:
.LBB6827:
	movl	$16, %edx
.LBE6827:
.LBE6826:
	movl	%eax, 4(%esp)
.LVL459:
.LBB6829:
.LBB6828:
	movl	%edi, %eax
	call	print_unsigned_long.part.57
.LVL460:
.LBE6828:
.LBE6829:
	.loc 41 225 0
	addl	4(%esp), %eax
	jmp	.L438
.LVL461:
.L405:
.LBE6852:
	.loc 41 259 0
	movl	(%edi), %eax
	leal	4(%edi), %ebp
.LVL462:
.LBB6853:
.LBB6854:
	.loc 41 90 0
	testl	%eax, %eax
	je	.L417
.LVL463:
.L440:
	movl	$10, %edx
	call	print_unsigned_long.part.57
.LVL464:
	jmp	.L418
.LVL465:
.L402:
.LBE6854:
.LBE6853:
	.loc 41 253 0
	cmpb	$120, 2(%ebx)
	je	.L449
.LVL466:
.L411:
	.loc 41 256 0
	addl	$3, %ebx
.LVL467:
	movl	(%esp), %eax
	jmp	.L391
.LVL468:
.L448:
.LBB6855:
.LBB6849:
.LBB6850:
	.loc 41 21 0
	subl	$12, %esp
	.cfi_def_cfa_offset 60
.LVL469:
	pushl	$45
	.cfi_def_cfa_offset 64
	call	putConsoleChar
.LVL470:
.LBE6850:
.LBE6849:
	.loc 41 204 0
	movl	%edi, %eax
	.loc 41 200 0
	addl	$1, 16(%esp)
.LVL471:
	.loc 41 204 0
	negl	%eax
.LVL472:
	addl	$16, %esp
	.cfi_def_cfa_offset 48
	jmp	.L439
.LVL473:
.L445:
.LBE6855:
.LBB6856:
.LBB6832:
	.loc 41 23 0
	subl	$12, %esp
	.cfi_def_cfa_offset 60
.LVL474:
	pushl	$13
	.cfi_def_cfa_offset 64
	call	putConsoleChar
.LVL475:
	addl	$16, %esp
	.cfi_def_cfa_offset 48
.LVL476:
	jmp	.L423
.LVL477:
.L447:
.LBE6832:
.LBE6856:
	.loc 41 238 0
	cmpb	$100, %al
	jne	.L427
.LBB6857:
	.loc 41 240 0
	leal	4(%edi), %ebp
.LVL478:
	movl	(%edi), %edi
.LVL479:
	.loc 41 242 0
	testl	%edi, %edi
	js	.L450
.LVL480:
	.loc 41 248 0
	movl	%edi, %eax
.LBB6858:
.LBB6859:
	.loc 41 90 0
	jne	.L440
.LVL481:
.L417:
.LBE6859:
.LBE6858:
.LBE6857:
.LBB6862:
.LBB6845:
.LBB6843:
.LBB6844:
	.loc 41 21 0
	subl	$12, %esp
	.cfi_def_cfa_offset 60
.LVL482:
	pushl	$48
	.cfi_def_cfa_offset 64
	call	putConsoleChar
.LVL483:
	addl	$16, %esp
	.cfi_def_cfa_offset 48
.LVL484:
.LBE6844:
.LBE6843:
	.loc 41 92 0
	movl	$1, %eax
	jmp	.L418
.LVL485:
.L425:
.LBE6845:
.LBE6862:
.LBE6874:
.LBE6879:
	.loc 41 318 0
	addl	$28, %esp
	.cfi_remember_state
	.cfi_def_cfa_offset 20
.LBB6880:
.LBB6875:
	.loc 41 173 0
	xorl	%eax, %eax
.LBE6875:
.LBE6880:
	.loc 41 318 0
	popl	%ebx
	.cfi_restore 3
	.cfi_def_cfa_offset 16
.LVL486:
	popl	%esi
	.cfi_restore 6
	.cfi_def_cfa_offset 12
	popl	%edi
	.cfi_restore 7
	.cfi_def_cfa_offset 8
	popl	%ebp
	.cfi_restore 5
	.cfi_def_cfa_offset 4
	ret
.LVL487:
.L449:
	.cfi_restore_state
.LBB6881:
.LBB6876:
	.loc 41 254 0
	leal	8(%edi), %eax
	movl	(%edi), %ebp
	movl	%eax, 4(%esp)
.LVL488:
	movl	4(%edi), %eax
.LVL489:
.LBB6863:
.LBB6864:
	.loc 41 120 0
	xorl	%edi, %edi
	.loc 41 134 0
	testl	%eax, %eax
	jne	.L451
.LVL490:
.L412:
	.loc 41 148 0
	subl	$8, %esp
	.cfi_def_cfa_offset 56
.LVL491:
	pushl	$16
	.cfi_def_cfa_offset 60
	pushl	%ebp
	.cfi_def_cfa_offset 64
	call	print_unsigned_long
.LVL492:
.LBE6864:
.LBE6863:
	.loc 41 254 0
	leal	(%eax,%edi), %edx
	addl	%edx, 16(%esp)
.LVL493:
	addl	$16, %esp
	.cfi_def_cfa_offset 48
	movl	4(%esp), %edi
	jmp	.L411
.LVL494:
.L450:
.LBB6870:
.LBB6860:
.LBB6861:
	.loc 41 21 0
	subl	$12, %esp
	.cfi_def_cfa_offset 60
.LVL495:
	pushl	$45
	.cfi_def_cfa_offset 64
	call	putConsoleChar
.LVL496:
.LBE6861:
.LBE6860:
	.loc 41 248 0
	movl	%edi, %eax
	.loc 41 244 0
	addl	$1, 16(%esp)
.LVL497:
	.loc 41 248 0
	negl	%eax
.LVL498:
	addl	$16, %esp
	.cfi_def_cfa_offset 48
	jmp	.L440
.LVL499:
.L451:
.LBE6870:
.LBB6871:
.LBB6869:
	.loc 41 135 0
	subl	$8, %esp
	.cfi_def_cfa_offset 56
.LVL500:
	pushl	$16
	.cfi_def_cfa_offset 60
	pushl	%eax
	.cfi_def_cfa_offset 64
	call	print_unsigned_long
.LVL501:
	movl	%eax, %edi
.LVL502:
	leal	8(%eax), %eax
.LVL503:
	movl	%eax, 24(%esp)
	addl	$16, %esp
	.cfi_def_cfa_offset 48
.LVL504:
	.loc 41 121 0
	movl	$-268435456, %eax
.LVL505:
.L413:
	.loc 41 137 0
	testl	%eax, %ebp
	jne	.L412
	movl	%eax, 12(%esp)
.LVL506:
.LBB6865:
.LBB6866:
	.loc 41 21 0
	subl	$12, %esp
	.cfi_def_cfa_offset 60
.LVL507:
.LBE6866:
.LBE6865:
	.loc 41 139 0
	addl	$1, %edi
.LVL508:
.LBB6868:
.LBB6867:
	.loc 41 21 0
	pushl	$48
	.cfi_def_cfa_offset 64
	call	putConsoleChar
.LVL509:
.LBE6867:
.LBE6868:
	.loc 41 140 0
	movl	28(%esp), %eax
	.loc 41 142 0
	addl	$16, %esp
	.cfi_def_cfa_offset 48
.LVL510:
	.loc 41 140 0
	shrl	$4, %eax
.LVL511:
	.loc 41 142 0
	cmpl	8(%esp), %edi
	jne	.L413
	jmp	.L412
.LBE6869:
.LBE6871:
.LBE6876:
.LBE6881:
	.cfi_endproc
.LFE720:
	.size	kprintf, .-kprintf
	.section	.text.unlikely
.LCOLDE78:
	.text
.LHOTE78:
	.section	.rodata.str1.1
.LC79:
	.string	"APIC: Enabled bit not set\n"
	.section	.rodata.str1.4,"aMS",@progbits,1
	.align 4
.LC80:
	.string	"x2APIC enabled in BIOS but kernel does not support that\n"
	.section	.boot.text
.LCOLDB81:
.LHOTB81:
	.p2align 4,,15
	.globl	apic_enable
	.type	apic_enable, @function
apic_enable:
.LFB562:
	.loc 21 36 0
	.cfi_startproc
.LVL512:
	pushl	%esi
	.cfi_def_cfa_offset 8
	.cfi_offset 6, -8
.LBB6882:
.LBB6883:
.LBB6884:
.LBB6885:
	.loc 10 101 0
	movl	$27, %ecx
.LBE6885:
.LBE6884:
.LBE6883:
.LBE6882:
	.loc 21 36 0
	pushl	%ebx
	.cfi_def_cfa_offset 12
	.cfi_offset 3, -12
	subl	$4, %esp
	.cfi_def_cfa_offset 16
.LBB6889:
.LBB6888:
.LBB6887:
.LBB6886:
	.loc 10 101 0
#APP
# 101 "/home/axjllt/Desktop/ori_refos/kernel/include/arch/x86/arch/machine.h" 1
	rdmsr
# 0 "" 2
.LVL513:
#NO_APP
.LBE6886:
.LBE6887:
.LBE6888:
.LBE6889:
	.loc 21 40 0
	testb	$8, %ah
	je	.L462
.LVL514:
.LBB6890:
.LBB6891:
.LBB6892:
.LBB6893:
.LBB6894:
.LBB6895:
	.loc 10 101 0
#APP
# 101 "/home/axjllt/Desktop/ori_refos/kernel/include/arch/x86/arch/machine.h" 1
	rdmsr
# 0 "" 2
#NO_APP
.LBE6895:
.LBE6894:
.LBE6893:
.LBE6892:
.LBB6899:
.LBB6900:
	.loc 10 160 0
	xorl	%ecx, %ecx
.LBE6900:
.LBE6899:
.LBB6902:
.LBB6898:
.LBB6897:
.LBB6896:
	.loc 10 101 0
	movl	%eax, %esi
.LVL515:
.LBE6896:
.LBE6897:
.LBE6898:
.LBE6902:
.LBB6903:
.LBB6901:
	.loc 10 160 0
	movl	$1, %eax
#APP
# 160 "/home/axjllt/Desktop/ori_refos/kernel/include/arch/x86/arch/machine.h" 1
	cpuid
# 0 "" 2
.LVL516:
#NO_APP
.LBE6901:
.LBE6903:
	.loc 9 22 0
	andl	$2097152, %ecx
.LBE6891:
.LBE6890:
	.loc 21 54 0
	movl	$1, %eax
.LBB6905:
.LBB6904:
	.loc 9 22 0
	je	.L458
.LVL517:
	testl	$2048, %esi
	je	.L458
.LVL518:
	.loc 9 23 0
	andl	$1024, %esi
	je	.L458
.LBE6904:
.LBE6905:
	.loc 21 46 0
	subl	$12, %esp
	.cfi_def_cfa_offset 28
	pushl	$.LC80
	.cfi_def_cfa_offset 32
	call	kprintf
.LVL519:
	.loc 21 47 0
	addl	$16, %esp
	.cfi_def_cfa_offset 16
	xorl	%eax, %eax
.L458:
	.loc 21 55 0
	addl	$4, %esp
	.cfi_remember_state
	.cfi_def_cfa_offset 12
	popl	%ebx
	.cfi_restore 3
	.cfi_def_cfa_offset 8
	popl	%esi
	.cfi_restore 6
	.cfi_def_cfa_offset 4
	ret
	.p2align 4,,10
	.p2align 3
.L462:
	.cfi_restore_state
	.loc 21 41 0
	subl	$12, %esp
	.cfi_def_cfa_offset 28
	pushl	$.LC79
	.cfi_def_cfa_offset 32
	call	kprintf
.LVL520:
	.loc 21 42 0
	addl	$16, %esp
	.cfi_def_cfa_offset 16
	xorl	%eax, %eax
	.loc 21 55 0
	addl	$4, %esp
	.cfi_def_cfa_offset 12
	popl	%ebx
	.cfi_restore 3
	.cfi_def_cfa_offset 8
	popl	%esi
	.cfi_restore 6
	.cfi_def_cfa_offset 4
	ret
	.cfi_endproc
.LFE562:
	.size	apic_enable, .-apic_enable
.LCOLDE81:
.LHOTE81:
	.section	.rodata.str1.1
.LC82:
	.string	"halting..."
.LC83:
	.string	"\nKernel entry via "
.LC84:
	.string	"Interrupt, irq %lu\n"
.LC85:
	.string	"Unknown syscall, word: %lu"
.LC86:
	.string	"VM Fault, fault type: %lu\n"
.LC87:
	.string	"User level fault, number: %lu"
.LC88:
	.string	"Syscall, number: %ld, %s\n"
	.section	.rodata.str1.4
	.align 4
.LC89:
	.string	"Cap type: %lu, Invocation tag: %lu\n"
	.section	.rodata.str1.1
.LC90:
	.string	"Unknown\n"
	.section	.text.unlikely
.LCOLDB91:
	.text
.LHOTB91:
	.p2align 4,,15
	.globl	halt
	.type	halt, @function
halt:
.LFB501:
	.loc 1 24 0
	.cfi_startproc
	subl	$24, %esp
	.cfi_def_cfa_offset 28
	.loc 1 26 0
#APP
# 26 "/home/axjllt/Desktop/ori_refos/kernel/src/arch/x86/idle.c" 1
	cli
# 0 "" 2
	.loc 1 29 0
#NO_APP
	pushl	$.LC82
	.cfi_def_cfa_offset 32
	call	kprintf
.LVL521:
.LBB6910:
.LBB6911:
	.file 42 "/home/axjllt/Desktop/ori_refos/kernel/include/api/debug.h"
	.loc 42 28 0
	movl	$.LC83, (%esp)
	call	kprintf
.LVL522:
	.loc 42 29 0
	movzbl	ksKernelEntry, %eax
	addl	$16, %esp
	.cfi_def_cfa_offset 16
	andl	$7, %eax
	cmpb	$5, %al
	ja	.L464
	movzbl	%al, %eax
	jmp	*.L466(,%eax,4)
	.section	.rodata
	.align 4
	.align 4
.L466:
	.long	.L465
	.long	.L467
	.long	.L468
	.long	.L464
	.long	.L469
	.long	.L470
	.text
.L464:
	.loc 42 68 0
	subl	$12, %esp
	.cfi_def_cfa_offset 28
	pushl	$.LC90
	.cfi_def_cfa_offset 32
	call	kprintf
.LVL523:
	addl	$16, %esp
	.cfi_def_cfa_offset 16
	.p2align 4,,10
	.p2align 3
.L475:
.LBE6911:
.LBE6910:
.LBB6913:
.LBB6914:
	.loc 1 19 0
#APP
# 19 "/home/axjllt/Desktop/ori_refos/kernel/src/arch/x86/idle.c" 1
	hlt
# 0 "" 2
#NO_APP
	jmp	.L475
.L470:
.LBE6914:
.LBE6913:
.LBB6915:
.LBB6912:
	.loc 42 48 0
	movzbl	ksKernelEntry+1, %eax
	subl	$4, %esp
	.cfi_def_cfa_offset 20
	andl	$15, %eax
	pushl	syscall_names(,%eax,4)
	.cfi_def_cfa_offset 24
	pushl	%eax
	.cfi_def_cfa_offset 28
	pushl	$.LC88
	.cfi_def_cfa_offset 32
	call	kprintf
.LVL524:
	.loc 42 50 0
	movzbl	ksKernelEntry+1, %edx
	.loc 42 49 0
	addl	$16, %esp
	.cfi_def_cfa_offset 16
	.loc 42 50 0
	movl	%edx, %eax
	andl	$15, %eax
	.loc 42 49 0
	leal	-3(%eax), %ecx
	cmpb	$1, %cl
	jbe	.L473
	cmpb	$1, %al
	jne	.L475
.L473:
	.loc 42 53 0
	movzbl	ksKernelEntry+2, %eax
	subl	$4, %esp
	.cfi_def_cfa_offset 20
	movzbl	ksKernelEntry+3, %ecx
	shrb	$2, %al
	sall	$6, %ecx
	movzbl	%al, %eax
	orl	%ecx, %eax
	movzbl	ksKernelEntry+4, %ecx
	andl	$31, %ecx
	sall	$14, %ecx
	orl	%ecx, %eax
	pushl	%eax
	.cfi_def_cfa_offset 24
	movl	%edx, %eax
	movzbl	ksKernelEntry+2, %edx
	shrb	$4, %al
	movzbl	%al, %eax
	andl	$1, %edx
	sall	$4, %edx
	orl	%edx, %eax
	pushl	%eax
	.cfi_def_cfa_offset 28
	pushl	$.LC89
	.cfi_def_cfa_offset 32
	call	kprintf
.LVL525:
	addl	$16, %esp
	.cfi_def_cfa_offset 16
	jmp	.L475
.L469:
	.loc 42 37 0
	movzbl	ksKernelEntry+2, %edx
	subl	$8, %esp
	.cfi_def_cfa_offset 24
	movzbl	ksKernelEntry+1, %eax
	sall	$8, %edx
	orl	%edx, %eax
	movzbl	ksKernelEntry+3, %edx
	sall	$16, %edx
	orl	%edx, %eax
	movzbl	ksKernelEntry+4, %edx
	andl	$31, %edx
	sall	$24, %edx
	orl	%edx, %eax
	pushl	%eax
	.cfi_def_cfa_offset 28
	pushl	$.LC86
	.cfi_def_cfa_offset 32
	call	kprintf
.LVL526:
	addl	$16, %esp
	.cfi_def_cfa_offset 16
	jmp	.L475
.L467:
	.loc 42 34 0
	movzbl	ksKernelEntry+2, %edx
	subl	$8, %esp
	.cfi_def_cfa_offset 24
	movzbl	ksKernelEntry+1, %eax
	sall	$8, %edx
	orl	%edx, %eax
	movzbl	ksKernelEntry+3, %edx
	sall	$16, %edx
	orl	%edx, %eax
	movzbl	ksKernelEntry+4, %edx
	andl	$31, %edx
	sall	$24, %edx
	orl	%edx, %eax
	pushl	%eax
	.cfi_def_cfa_offset 28
	pushl	$.LC85
	.cfi_def_cfa_offset 32
	call	kprintf
.LVL527:
	addl	$16, %esp
	.cfi_def_cfa_offset 16
	jmp	.L475
.L465:
	.loc 42 31 0
	movzbl	ksKernelEntry+2, %edx
	subl	$8, %esp
	.cfi_def_cfa_offset 24
	movzbl	ksKernelEntry+1, %eax
	sall	$8, %edx
	orl	%edx, %eax
	movzbl	ksKernelEntry+3, %edx
	sall	$16, %edx
	orl	%edx, %eax
	movzbl	ksKernelEntry+4, %edx
	andl	$31, %edx
	sall	$24, %edx
	orl	%edx, %eax
	pushl	%eax
	.cfi_def_cfa_offset 28
	pushl	$.LC84
	.cfi_def_cfa_offset 32
	call	kprintf
.LVL528:
	addl	$16, %esp
	.cfi_def_cfa_offset 16
	jmp	.L475
.L468:
	.loc 42 40 0
	movzbl	ksKernelEntry+2, %edx
	subl	$8, %esp
	.cfi_def_cfa_offset 24
	movzbl	ksKernelEntry+1, %eax
	sall	$8, %edx
	orl	%edx, %eax
	movzbl	ksKernelEntry+3, %edx
	sall	$16, %edx
	orl	%edx, %eax
	movzbl	ksKernelEntry+4, %edx
	andl	$31, %edx
	sall	$24, %edx
	orl	%edx, %eax
	pushl	%eax
	.cfi_def_cfa_offset 28
	pushl	$.LC87
	.cfi_def_cfa_offset 32
	call	kprintf
.LVL529:
	addl	$16, %esp
	.cfi_def_cfa_offset 16
	jmp	.L475
.LBE6912:
.LBE6915:
	.cfi_endproc
.LFE501:
	.size	halt, .-halt
	.section	.text.unlikely
.LCOLDE91:
	.text
.LHOTE91:
	.section	.rodata.str1.4
	.align 4
.LC92:
	.string	"\n========== KERNEL EXCEPTION ==========\n"
	.section	.rodata.str1.1
.LC93:
	.string	"Vector:  0x%lx\n"
.LC94:
	.string	"ErrCode: 0x%lx\n"
.LC95:
	.string	"IP:      0x%lx\n"
.LC96:
	.string	"SP:      0x%lx\n"
.LC97:
	.string	"FLAGS:   0x%lx\n"
.LC98:
	.string	"CR0:     0x%lx\n"
	.section	.rodata.str1.4
	.align 4
.LC99:
	.string	"CR2:     0x%lx (page-fault address)\n"
	.align 4
.LC100:
	.string	"CR3:     0x%lx (page-directory physical address)\n"
	.section	.rodata.str1.1
.LC101:
	.string	"CR4:     0x%lx\n"
.LC102:
	.string	"\nStack Dump:\n"
.LC103:
	.string	"*0x%lx == 0x%lx\n"
.LC104:
	.string	"\nHalting...\n"
	.section	.text.unlikely
.LCOLDB105:
	.text
.LHOTB105:
	.p2align 4,,15
	.globl	handleKernelException
	.type	handleKernelException, @function
handleKernelException:
.LFB495:
	.file 43 "/home/axjllt/Desktop/ori_refos/kernel/src/arch/x86/api/faults.c"
	.loc 43 72 0
	.cfi_startproc
.LVL530:
	pushl	%esi
	.cfi_def_cfa_offset 8
	.cfi_offset 6, -8
	pushl	%ebx
	.cfi_def_cfa_offset 12
	.cfi_offset 3, -12
	subl	$4, %esp
	.cfi_def_cfa_offset 16
	.loc 43 76 0
	cmpl	$13, 16(%esp)
	jne	.L479
	.loc 43 76 0 is_stmt 0 discriminator 1
	movl	x86KSGPExceptReturnTo, %eax
	testl	%eax, %eax
	je	.L479
.LVL531:
.LBB6916:
	.loc 43 78 0 is_stmt 1
	movl	$0, x86KSGPExceptReturnTo
.LBE6916:
	.loc 43 99 0
	addl	$4, %esp
	.cfi_remember_state
	.cfi_def_cfa_offset 12
	popl	%ebx
	.cfi_restore 3
	.cfi_def_cfa_offset 8
	popl	%esi
	.cfi_restore 6
	.cfi_def_cfa_offset 4
	ret
.LVL532:
.L479:
	.cfi_restore_state
	.loc 43 81 0
	subl	$12, %esp
	.cfi_def_cfa_offset 28
	pushl	$.LC92
	.cfi_def_cfa_offset 32
	call	kprintf
.LVL533:
	.loc 43 82 0
	popl	%eax
	.cfi_def_cfa_offset 28
	popl	%edx
	.cfi_def_cfa_offset 24
	pushl	24(%esp)
	.cfi_def_cfa_offset 28
	pushl	$.LC93
	.cfi_def_cfa_offset 32
	call	kprintf
.LVL534:
	.loc 43 83 0
	popl	%ecx
	.cfi_def_cfa_offset 28
	popl	%ebx
	.cfi_def_cfa_offset 24
	pushl	28(%esp)
	.cfi_def_cfa_offset 28
	pushl	$.LC94
	.cfi_def_cfa_offset 32
	call	kprintf
.LVL535:
	.loc 43 84 0
	popl	%esi
	.cfi_def_cfa_offset 28
	popl	%eax
	.cfi_def_cfa_offset 24
	pushl	32(%esp)
	.cfi_def_cfa_offset 28
	pushl	$.LC95
	.cfi_def_cfa_offset 32
	call	kprintf
.LVL536:
	.loc 43 85 0
	popl	%eax
	.cfi_def_cfa_offset 28
	popl	%edx
	.cfi_def_cfa_offset 24
	pushl	36(%esp)
	.cfi_def_cfa_offset 28
	pushl	$.LC96
	.cfi_def_cfa_offset 32
	call	kprintf
.LVL537:
	.loc 43 86 0
	popl	%ecx
	.cfi_def_cfa_offset 28
	popl	%ebx
	.cfi_def_cfa_offset 24
	pushl	40(%esp)
	.cfi_def_cfa_offset 28
	pushl	$.LC97
	.cfi_def_cfa_offset 32
	call	kprintf
.LVL538:
	.loc 43 87 0
	popl	%esi
	.cfi_def_cfa_offset 28
	popl	%eax
	.cfi_def_cfa_offset 24
	pushl	44(%esp)
	.cfi_def_cfa_offset 28
	pushl	$.LC98
	.cfi_def_cfa_offset 32
	call	kprintf
.LVL539:
	.loc 43 88 0
	popl	%eax
	.cfi_def_cfa_offset 28
	popl	%edx
	.cfi_def_cfa_offset 24
	pushl	48(%esp)
	.cfi_def_cfa_offset 28
	pushl	$.LC99
	.cfi_def_cfa_offset 32
	call	kprintf
.LVL540:
	.loc 43 89 0
	popl	%ecx
	.cfi_def_cfa_offset 28
	popl	%ebx
	.cfi_def_cfa_offset 24
	pushl	52(%esp)
	.cfi_def_cfa_offset 28
	pushl	$.LC100
	.cfi_def_cfa_offset 32
	call	kprintf
.LVL541:
	.loc 43 90 0
	popl	%esi
	.cfi_def_cfa_offset 28
	popl	%eax
	.cfi_def_cfa_offset 24
	pushl	56(%esp)
	.cfi_def_cfa_offset 28
	pushl	$.LC101
	.cfi_def_cfa_offset 32
	call	kprintf
.LVL542:
	.loc 43 91 0
	movl	$.LC102, (%esp)
	call	kprintf
.LVL543:
	movl	44(%esp), %eax
	addl	$16, %esp
	.cfi_def_cfa_offset 16
	movl	28(%esp), %ebx
	leal	80(%eax), %esi
.LVL544:
	.p2align 4,,10
	.p2align 3
.L480:
.LBB6917:
	.loc 43 94 0 discriminator 3
	subl	$4, %esp
	.cfi_def_cfa_offset 20
	pushl	(%ebx)
	.cfi_def_cfa_offset 24
	pushl	%ebx
	.cfi_def_cfa_offset 28
	addl	$4, %ebx
.LVL545:
	pushl	$.LC103
	.cfi_def_cfa_offset 32
.LVL546:
	call	kprintf
.LVL547:
.LBE6917:
	.loc 43 92 0 discriminator 3
	addl	$16, %esp
	.cfi_def_cfa_offset 16
	cmpl	%esi, %ebx
	jne	.L480
	.loc 43 96 0
	subl	$12, %esp
	.cfi_def_cfa_offset 28
	pushl	$.LC104
	.cfi_def_cfa_offset 32
	call	kprintf
.LVL548:
	.loc 43 97 0
	call	halt
.LVL549:
	.cfi_endproc
.LFE495:
	.size	handleKernelException, .-handleKernelException
	.section	.text.unlikely
.LCOLDE105:
	.text
.LHOTE105:
	.section	.rodata.str1.1
.LC106:
	.string	"Cacheline size must be >0\n"
	.section	.rodata.str1.4
	.align 4
.LC107:
	.string	"Cacheline size must be a power of two\n"
	.section	.boot.text
.LCOLDB108:
.LHOTB108:
	.p2align 4,,15
	.globl	getCacheLineSizeBits
	.type	getCacheLineSizeBits, @function
getCacheLineSizeBits:
.LFB595:
	.loc 25 47 0
	.cfi_startproc
	subl	$12, %esp
	.cfi_def_cfa_offset 16
	.loc 25 51 0
	call	getCacheLineSize
.LVL550:
	.loc 25 52 0
	testl	%eax, %eax
	je	.L489
	movl	%eax, %edx
.LVL551:
	.loc 25 59 0
	xorl	%eax, %eax
.LVL552:
	testb	$1, %dl
	jne	.L491
.LVL553:
	.p2align 4,,10
	.p2align 3
.L496:
	.loc 25 60 0
	shrl	%edx
.LVL554:
	.loc 25 61 0
	addl	$1, %eax
.LVL555:
	.loc 25 59 0
	testb	$1, %dl
	je	.L496
.LVL556:
.L491:
	.loc 25 64 0
	cmpl	$1, %edx
	je	.L492
	.loc 25 65 0
	subl	$12, %esp
	.cfi_def_cfa_offset 28
	pushl	$.LC107
	.cfi_def_cfa_offset 32
	call	kprintf
.LVL557:
	.loc 25 66 0
	addl	$16, %esp
	.cfi_def_cfa_offset 16
	xorl	%eax, %eax
.L492:
	.loc 25 70 0
	addl	$12, %esp
	.cfi_remember_state
	.cfi_def_cfa_offset 4
	ret
.LVL558:
	.p2align 4,,10
	.p2align 3
.L489:
	.cfi_restore_state
	.loc 25 53 0
	subl	$12, %esp
	.cfi_def_cfa_offset 28
	pushl	$.LC106
	.cfi_def_cfa_offset 32
	call	kprintf
.LVL559:
	.loc 25 54 0
	addl	$16, %esp
	.cfi_def_cfa_offset 16
	xorl	%eax, %eax
	.loc 25 70 0
	addl	$12, %esp
	.cfi_def_cfa_offset 4
	ret
	.cfi_endproc
.LFE595:
	.size	getCacheLineSizeBits, .-getCacheLineSizeBits
.LCOLDE108:
.LHOTE108:
	.section	.rodata.str1.4
	.align 4
.LC109:
	.string	"Disabling prefetchers not implemented for CPU fam %x model %x\n"
	.section	.rodata
	.align 32
.LC1:
	.long	77
	.long	86
	.long	79
	.long	71
	.long	61
	.long	60
	.long	63
	.long	69
	.long	70
	.long	154
	.long	62
	.long	58
	.long	42
	.long	45
	.long	37
	.long	44
	.long	47
	.long	30
	.long	26
	.long	46
	.long	78
	.long	94
	.section	.boot.text
.LCOLDB110:
.LHOTB110:
	.p2align 4,,15
	.globl	disablePrefetchers
	.type	disablePrefetchers, @function
disablePrefetchers:
.LFB597:
	.loc 25 94 0
	.cfi_startproc
	pushl	%edi
	.cfi_def_cfa_offset 8
	.cfi_offset 7, -8
	.loc 25 99 0
	movl	$22, %ecx
	.loc 25 113 0
	xorl	%eax, %eax
	.loc 25 94 0
	pushl	%esi
	.cfi_def_cfa_offset 12
	.cfi_offset 6, -12
	.loc 25 99 0
	movl	$.LC1, %esi
	.loc 25 94 0
	pushl	%ebx
	.cfi_def_cfa_offset 16
	.cfi_offset 3, -16
	subl	$96, %esp
	.cfi_def_cfa_offset 112
	movzbl	cpu_identity+17, %edx
	.loc 25 99 0
	leal	8(%esp), %ebx
	movl	%ebx, %edi
	rep movsl
.LVL560:
	movzbl	cpu_identity+18, %ecx
	jmp	.L504
.LVL561:
	.p2align 4,,10
	.p2align 3
.L502:
	.loc 25 113 0 discriminator 2
	addl	$1, %eax
.LVL562:
	cmpl	$22, %eax
	je	.L507
.LVL563:
.L504:
	.loc 25 121 0
	cmpb	$6, %dl
	jne	.L502
	.loc 25 122 0
	cmpl	(%ebx,%eax,4), %ecx
	jne	.L502
.LVL564:
.LBB6918:
.LBB6919:
.LBB6920:
.LBB6921:
	.loc 10 101 0
	movl	$420, %ecx
#APP
# 101 "/home/axjllt/Desktop/ori_refos/kernel/include/arch/x86/arch/machine.h" 1
	rdmsr
# 0 "" 2
.LVL565:
#NO_APP
	movl	%eax, %ebx
.LVL566:
.LBE6921:
.LBE6920:
.LBE6919:
.LBE6918:
.LBB6922:
.LBB6923:
.LBB6924:
.LBB6925:
#APP
# 101 "/home/axjllt/Desktop/ori_refos/kernel/include/arch/x86/arch/machine.h" 1
	rdmsr
# 0 "" 2
.LVL567:
#NO_APP
.LBE6925:
.LBE6924:
.LBE6923:
.LBE6922:
	.loc 25 131 0
	movl	%ebx, %eax
	orl	$15, %eax
.LVL568:
.LBB6926:
.LBB6927:
.LBB6928:
.LBB6929:
	.loc 10 120 0
#APP
# 120 "/home/axjllt/Desktop/ori_refos/kernel/include/arch/x86/arch/machine.h" 1
	wrmsr
# 0 "" 2
.LVL569:
#NO_APP
.LBE6929:
.LBE6928:
.LBE6927:
.LBE6926:
	.loc 25 140 0
	addl	$96, %esp
	.cfi_remember_state
	.cfi_def_cfa_offset 16
	.loc 25 133 0
	movl	$1, %eax
	.loc 25 140 0
	popl	%ebx
	.cfi_restore 3
	.cfi_def_cfa_offset 12
	popl	%esi
	.cfi_restore 6
	.cfi_def_cfa_offset 8
	popl	%edi
	.cfi_restore 7
	.cfi_def_cfa_offset 4
	ret
.LVL570:
	.p2align 4,,10
	.p2align 3
.L507:
	.cfi_restore_state
	.loc 25 137 0
	subl	$4, %esp
	.cfi_def_cfa_offset 116
	pushl	%ecx
	.cfi_def_cfa_offset 120
	pushl	%edx
	.cfi_def_cfa_offset 124
	pushl	$.LC109
	.cfi_def_cfa_offset 128
	call	kprintf
.LVL571:
	.loc 25 139 0
	addl	$16, %esp
	.cfi_def_cfa_offset 112
	xorl	%eax, %eax
	.loc 25 140 0
	addl	$96, %esp
	.cfi_def_cfa_offset 16
	popl	%ebx
	.cfi_restore 3
	.cfi_def_cfa_offset 12
	popl	%esi
	.cfi_restore 6
	.cfi_def_cfa_offset 8
	popl	%edi
	.cfi_restore 7
	.cfi_def_cfa_offset 4
	ret
	.cfi_endproc
.LFE597:
	.size	disablePrefetchers, .-disablePrefetchers
.LCOLDE110:
.LHOTE110:
	.section	.rodata.str1.4
	.align 4
.LC111:
	.string	"\033[0m\033[30;1m<<\033[0m\033[32mseL4(CPU %lu)\033[0m\033[30;1m [%s/%d T%p \"%s\" @%lx]: "
	.align 4
.LC112:
	.string	"IRQControl: IRQ %ld should be in range %ld - %ld"
	.section	.rodata.str1.1
.LC113:
	.string	">>\033[0m\n"
	.section	.text.unlikely
.LCOLDB114:
	.text
.LHOTB114:
	.p2align 4,,15
	.type	Arch_checkIRQ.part.58, @function
Arch_checkIRQ.part.58:
.LFB953:
	.loc 27 43 0
	.cfi_startproc
.LVL572:
	pushl	%ebx
	.cfi_def_cfa_offset 8
	.cfi_offset 3, -8
	movl	%eax, %ebx
	subl	$12, %esp
	.cfi_def_cfa_offset 20
	.loc 27 52 0
	movl	ksCurThread, %eax
.LVL573:
	pushl	556(%eax)
	.cfi_def_cfa_offset 24
	leal	668(%eax), %edx
	pushl	%edx
	.cfi_def_cfa_offset 28
	pushl	%eax
	.cfi_def_cfa_offset 32
	pushl	$52
	.cfi_def_cfa_offset 36
	pushl	$__func__.7594
	.cfi_def_cfa_offset 40
	pushl	$0
	.cfi_def_cfa_offset 44
	pushl	$.LC111
	.cfi_def_cfa_offset 48
	call	kprintf
.LVL574:
	addl	$32, %esp
	.cfi_def_cfa_offset 16
	pushl	$15
	.cfi_def_cfa_offset 20
	pushl	$0
	.cfi_def_cfa_offset 24
	pushl	%ebx
	.cfi_def_cfa_offset 28
	pushl	$.LC112
	.cfi_def_cfa_offset 32
	call	kprintf
.LVL575:
	movl	$.LC113, (%esp)
	call	kprintf
.LVL576:
	.loc 27 58 0
	movl	$3, %eax
	.loc 27 53 0
	movl	$4, current_syscall_error+24
	.loc 27 54 0
	movl	$0, current_syscall_error+8
	.loc 27 55 0
	movl	$15, current_syscall_error+12
	.loc 27 58 0
	addl	$24, %esp
	.cfi_def_cfa_offset 8
	popl	%ebx
	.cfi_restore 3
	.cfi_def_cfa_offset 4
.LVL577:
	ret
	.cfi_endproc
.LFE953:
	.size	Arch_checkIRQ.part.58, .-Arch_checkIRQ.part.58
	.section	.text.unlikely
.LCOLDE114:
	.text
.LHOTE114:
	.section	.text.unlikely
.LCOLDB115:
	.text
.LHOTB115:
	.p2align 4,,15
	.globl	Arch_checkIRQ
	.type	Arch_checkIRQ, @function
Arch_checkIRQ:
.LFB601:
	.loc 27 44 0
	.cfi_startproc
.LVL578:
	.loc 27 44 0
	movl	4(%esp), %eax
	.loc 27 45 0
	cmpl	$15, %eax
	ja	.L512
	.loc 27 58 0
	xorl	%eax, %eax
	ret
.LVL579:
	.p2align 4,,10
	.p2align 3
.L512:
	jmp	Arch_checkIRQ.part.58
.LVL580:
	.cfi_endproc
.LFE601:
	.size	Arch_checkIRQ, .-Arch_checkIRQ
	.section	.text.unlikely
.LCOLDE115:
	.text
.LHOTE115:
	.section	.rodata.str1.4
	.align 4
.LC116:
	.string	"IRQControl: Illegal operation."
	.section	.text.unlikely
.LCOLDB117:
	.text
.LHOTB117:
	.p2align 4,,15
	.globl	Arch_decodeIRQControlInvocation
	.type	Arch_decodeIRQControlInvocation, @function
Arch_decodeIRQControlInvocation:
.LFB604:
	.loc 27 78 0
	.cfi_startproc
.LVL581:
	subl	$16, %esp
	.cfi_def_cfa_offset 20
	.loc 27 88 0
	movl	ksCurThread, %eax
	pushl	556(%eax)
	.cfi_def_cfa_offset 24
	leal	668(%eax), %edx
	pushl	%edx
	.cfi_def_cfa_offset 28
	pushl	%eax
	.cfi_def_cfa_offset 32
	pushl	$88
	.cfi_def_cfa_offset 36
	pushl	$__func__.7627
	.cfi_def_cfa_offset 40
	pushl	$0
	.cfi_def_cfa_offset 44
	pushl	$.LC111
	.cfi_def_cfa_offset 48
	call	kprintf
.LVL582:
	addl	$20, %esp
	.cfi_def_cfa_offset 28
	pushl	$.LC116
	.cfi_def_cfa_offset 32
	call	kprintf
.LVL583:
	movl	$.LC113, (%esp)
	call	kprintf
.LVL584:
	.loc 27 195 0
	movl	$3, %eax
	.loc 27 89 0
	movl	$3, current_syscall_error+24
	.loc 27 195 0
	addl	$28, %esp
	.cfi_def_cfa_offset 4
	ret
	.cfi_endproc
.LFE604:
	.size	Arch_decodeIRQControlInvocation, .-Arch_decodeIRQControlInvocation
	.section	.text.unlikely
.LCOLDE117:
	.text
.LHOTE117:
	.section	.rodata.str1.4
	.align 4
.LC118:
	.string	"IOSpace capability has no invocations"
	.section	.text.unlikely
.LCOLDB119:
	.text
.LHOTB119:
	.p2align 4,,15
	.globl	decodeX86IOSpaceInvocation
	.type	decodeX86IOSpaceInvocation, @function
decodeX86IOSpaceInvocation:
.LFB621:
	.loc 3 516 0
	.cfi_startproc
.LVL585:
	subl	$16, %esp
	.cfi_def_cfa_offset 20
	.loc 3 517 0
	movl	ksCurThread, %eax
	pushl	556(%eax)
	.cfi_def_cfa_offset 24
	leal	668(%eax), %edx
	pushl	%edx
	.cfi_def_cfa_offset 28
	pushl	%eax
	.cfi_def_cfa_offset 32
	pushl	$517
	.cfi_def_cfa_offset 36
	pushl	$__func__.7802
	.cfi_def_cfa_offset 40
	pushl	$0
	.cfi_def_cfa_offset 44
	pushl	$.LC111
	.cfi_def_cfa_offset 48
	call	kprintf
.LVL586:
	addl	$20, %esp
	.cfi_def_cfa_offset 28
	pushl	$.LC118
	.cfi_def_cfa_offset 32
	call	kprintf
.LVL587:
	movl	$.LC113, (%esp)
	call	kprintf
.LVL588:
	.loc 3 520 0
	movl	$3, %eax
	.loc 3 518 0
	movl	$3, current_syscall_error+24
	.loc 3 520 0
	addl	$28, %esp
	.cfi_def_cfa_offset 4
	ret
	.cfi_endproc
.LFE621:
	.size	decodeX86IOSpaceInvocation, .-decodeX86IOSpaceInvocation
	.section	.text.unlikely
.LCOLDE119:
	.text
.LHOTE119:
	.section	.rodata.str1.4
	.align 4
.LC120:
	.string	"seL4 called fail at %s:%u in function %s, saying \"%s\"\n"
	.section	.text.unlikely
.LCOLDB121:
	.text
.LHOTB121:
	.p2align 4,,15
	.globl	_fail
	.type	_fail, @function
_fail:
.LFB635:
	.file 44 "/home/axjllt/Desktop/ori_refos/kernel/src/assert.c"
	.loc 44 21 0
	.cfi_startproc
.LVL589:
	subl	$24, %esp
	.cfi_def_cfa_offset 28
	.loc 44 22 0
	pushl	28(%esp)
	.cfi_def_cfa_offset 32
	pushl	44(%esp)
	.cfi_def_cfa_offset 36
	pushl	44(%esp)
	.cfi_def_cfa_offset 40
	pushl	44(%esp)
	.cfi_def_cfa_offset 44
	pushl	$.LC120
	.cfi_def_cfa_offset 48
	call	kprintf
.LVL590:
	.loc 44 29 0
	addl	$32, %esp
	.cfi_def_cfa_offset 16
	call	halt
.LVL591:
	.cfi_endproc
.LFE635:
	.size	_fail, .-_fail
	.section	.text.unlikely
.LCOLDE121:
	.text
.LHOTE121:
	.section	.rodata.str1.4
	.align 4
.LC122:
	.string	"/home/axjllt/Desktop/ori_refos/kernel/src/arch/x86/32/kernel/vspace.c"
	.section	.rodata.str1.1
.LC123:
	.string	"Invalid page type"
	.section	.text.unlikely
.LCOLDB124:
	.text
.LHOTB124:
	.p2align 4,,15
	.globl	modeUnmapPage
	.type	modeUnmapPage, @function
modeUnmapPage:
.LFB465:
	.loc 16 687 0
	.cfi_startproc
.LVL592:
	subl	$12, %esp
	.cfi_def_cfa_offset 16
	.loc 16 688 0
	pushl	$__func__.6275
	.cfi_def_cfa_offset 20
	pushl	$688
	.cfi_def_cfa_offset 24
	pushl	$.LC122
	.cfi_def_cfa_offset 28
	pushl	$.LC123
	.cfi_def_cfa_offset 32
	call	_fail
.LVL593:
	.cfi_endproc
.LFE465:
	.size	modeUnmapPage, .-modeUnmapPage
	.section	.text.unlikely
.LCOLDE124:
	.text
.LHOTE124:
	.section	.rodata.str1.1
.LC125:
	.string	"Invalid Page type"
	.section	.text.unlikely
.LCOLDB126:
	.text
.LHOTB126:
	.p2align 4,,15
	.globl	decodeX86ModeMapRemapPage
	.type	decodeX86ModeMapRemapPage, @function
decodeX86ModeMapRemapPage:
.LFB466:
	.loc 16 693 0
	.cfi_startproc
.LVL594:
	subl	$12, %esp
	.cfi_def_cfa_offset 16
	.loc 16 694 0
	pushl	$__func__.6287
	.cfi_def_cfa_offset 20
	pushl	$694
	.cfi_def_cfa_offset 24
	pushl	$.LC122
	.cfi_def_cfa_offset 28
	pushl	$.LC125
	.cfi_def_cfa_offset 32
	call	_fail
.LVL595:
	.cfi_endproc
.LFE466:
	.size	decodeX86ModeMapRemapPage, .-decodeX86ModeMapRemapPage
	.section	.text.unlikely
.LCOLDE126:
	.text
.LHOTE126:
	.section	.rodata.str1.4
	.align 4
.LC127:
	.string	"/home/axjllt/Desktop/ori_refos/kernel/src/arch/x86/32/kernel/vspace_32paging.c"
	.section	.rodata.str1.1
.LC128:
	.string	"Should not be called"
	.section	.boot.text
.LCOLDB129:
.LHOTB129:
	.p2align 4,,15
	.globl	map_it_pd_cap
	.type	map_it_pd_cap, @function
map_it_pd_cap:
.LFB471:
	.loc 17 131 0
	.cfi_startproc
.LVL596:
	subl	$12, %esp
	.cfi_def_cfa_offset 16
	.loc 17 133 0
	pushl	$__func__.6327
	.cfi_def_cfa_offset 20
	pushl	$133
	.cfi_def_cfa_offset 24
	pushl	$.LC127
	.cfi_def_cfa_offset 28
	pushl	$.LC128
	.cfi_def_cfa_offset 32
	call	_fail
.LVL597:
	.cfi_endproc
.LFE471:
	.size	map_it_pd_cap, .-map_it_pd_cap
.LCOLDE129:
.LHOTE129:
	.section	.rodata.str1.4
	.align 4
.LC130:
	.string	"/home/axjllt/Desktop/ori_refos/kernel/src/arch/x86/32/object/objecttype.c"
	.section	.rodata.str1.1
.LC131:
	.string	"Invalid object type"
	.section	.text.unlikely
.LCOLDB132:
	.text
.LHOTB132:
	.p2align 4,,15
	.globl	Mode_getObjectSize
	.type	Mode_getObjectSize, @function
Mode_getObjectSize:
.LFB490:
	.loc 18 131 0
	.cfi_startproc
.LVL598:
	subl	$12, %esp
	.cfi_def_cfa_offset 16
	.loc 18 132 0
	pushl	$__func__.6475
	.cfi_def_cfa_offset 20
	pushl	$132
	.cfi_def_cfa_offset 24
	pushl	$.LC130
	.cfi_def_cfa_offset 28
	pushl	$.LC131
	.cfi_def_cfa_offset 32
	call	_fail
.LVL599:
	.cfi_endproc
.LFE490:
	.size	Mode_getObjectSize, .-Mode_getObjectSize
	.section	.text.unlikely
.LCOLDE132:
	.text
.LHOTE132:
	.section	.text.unlikely
.LCOLDB133:
	.text
.LHOTB133:
	.p2align 4,,15
	.globl	Arch_getObjectSize
	.type	Arch_getObjectSize, @function
Arch_getObjectSize:
.LFB628:
	.loc 28 435 0
	.cfi_startproc
.LVL600:
	subl	$12, %esp
	.cfi_def_cfa_offset 16
	.loc 28 435 0
	movl	16(%esp), %edx
	.loc 28 436 0
	cmpl	$9, %edx
	ja	.L529
	cmpl	$7, %edx
	jnb	.L530
	cmpl	$5, %edx
	je	.L530
	.loc 28 440 0
	movl	$22, %eax
	.loc 28 436 0
	cmpl	$6, %edx
	jne	.L528
.L532:
	.loc 28 464 0
	addl	$12, %esp
	.cfi_remember_state
	.cfi_def_cfa_offset 4
	ret
	.p2align 4,,10
	.p2align 3
.L530:
	.cfi_restore_state
	.loc 28 438 0
	movl	$12, %eax
	.loc 28 464 0
	addl	$12, %esp
	.cfi_remember_state
	.cfi_def_cfa_offset 4
	ret
	.p2align 4,,10
	.p2align 3
.L529:
	.cfi_restore_state
	.loc 28 446 0
	xorl	%eax, %eax
	.loc 28 436 0
	cmpl	$-1, %edx
	je	.L532
.L528:
	.loc 28 462 0
	subl	$12, %esp
	.cfi_def_cfa_offset 28
	pushl	%edx
	.cfi_def_cfa_offset 32
	call	Mode_getObjectSize
.LVL601:
	.cfi_endproc
.LFE628:
	.size	Arch_getObjectSize, .-Arch_getObjectSize
	.section	.text.unlikely
.LCOLDE133:
	.text
.LHOTE133:
	.section	.rodata.str1.4
	.align 4
.LC134:
	.string	"/home/axjllt/Desktop/ori_refos/kernel/src/arch/x86/api/faults.c"
	.section	.rodata.str1.1
.LC135:
	.string	"Invalid fault"
	.section	.text.unlikely
.LCOLDB136:
.LHOTB136:
	.type	Arch_handleFaultReply.part.60, @function
Arch_handleFaultReply.part.60:
.LFB955:
	.loc 43 19 0
	.cfi_startproc
.LVL602:
	subl	$12, %esp
	.cfi_def_cfa_offset 16
	.loc 43 26 0
	pushl	$__func__.6509
	.cfi_def_cfa_offset 20
	pushl	$26
	.cfi_def_cfa_offset 24
	pushl	$.LC134
	.cfi_def_cfa_offset 28
	pushl	$.LC135
	.cfi_def_cfa_offset 32
	call	_fail
.LVL603:
	.cfi_endproc
.LFE955:
	.size	Arch_handleFaultReply.part.60, .-Arch_handleFaultReply.part.60
.LCOLDE136:
.LHOTE136:
.LCOLDB137:
	.text
.LHOTB137:
	.p2align 4,,15
	.globl	Arch_handleFaultReply
	.type	Arch_handleFaultReply, @function
Arch_handleFaultReply:
.LFB493:
	.loc 43 20 0
	.cfi_startproc
.LVL604:
	subl	$12, %esp
	.cfi_def_cfa_offset 16
	.loc 43 21 0
	cmpl	$5, 24(%esp)
	jne	.L547
	.loc 43 28 0
	movl	$1, %eax
	addl	$12, %esp
	.cfi_remember_state
	.cfi_def_cfa_offset 4
	ret
.L547:
	.cfi_restore_state
	call	Arch_handleFaultReply.part.60
.LVL605:
	.cfi_endproc
.LFE493:
	.size	Arch_handleFaultReply, .-Arch_handleFaultReply
	.section	.text.unlikely
.LCOLDE137:
	.text
.LHOTE137:
	.section	.rodata.str1.4
	.align 4
.LC138:
	.string	"/home/axjllt/Desktop/ori_refos/kernel/src/arch/x86/kernel/vspace.c"
	.section	.rodata.str1.1
.LC139:
	.string	"Invalid VM rights"
	.section	.text.unlikely
.LCOLDB140:
	.text
.LHOTB140:
	.p2align 4,,15
	.type	WritableFromVMRights.part.62, @function
WritableFromVMRights.part.62:
.LFB957:
	.loc 20 588 0
	.cfi_startproc
.LVL606:
	subl	$12, %esp
	.cfi_def_cfa_offset 16
	.loc 20 599 0
	pushl	$__func__.7067
	.cfi_def_cfa_offset 20
	pushl	$599
	.cfi_def_cfa_offset 24
	pushl	$.LC138
	.cfi_def_cfa_offset 28
	pushl	$.LC139
	.cfi_def_cfa_offset 32
	call	_fail
.LVL607:
	.cfi_endproc
.LFE957:
	.size	WritableFromVMRights.part.62, .-WritableFromVMRights.part.62
	.section	.text.unlikely
.LCOLDE140:
	.text
.LHOTE140:
	.section	.text.unlikely
.LCOLDB141:
	.text
.LHOTB141:
	.p2align 4,,15
	.globl	WritableFromVMRights
	.type	WritableFromVMRights, @function
WritableFromVMRights:
.LFB543:
	.loc 20 589 0
	.cfi_startproc
.LVL608:
	subl	$12, %esp
	.cfi_def_cfa_offset 16
	.loc 20 589 0
	movl	16(%esp), %eax
	.loc 20 590 0
	cmpl	$2, %eax
	je	.L554
	cmpl	$3, %eax
	je	.L553
	cmpl	$1, %eax
	je	.L553
	call	WritableFromVMRights.part.62
.LVL609:
	.p2align 4,,10
	.p2align 3
.L553:
	.loc 20 596 0
	movl	$1, %eax
	.loc 20 601 0
	addl	$12, %esp
	.cfi_remember_state
	.cfi_def_cfa_offset 4
	ret
	.p2align 4,,10
	.p2align 3
.L554:
	.cfi_restore_state
	.loc 20 592 0
	xorl	%eax, %eax
	.loc 20 601 0
	addl	$12, %esp
	.cfi_def_cfa_offset 4
	ret
	.cfi_endproc
.LFE543:
	.size	WritableFromVMRights, .-WritableFromVMRights
	.section	.text.unlikely
.LCOLDE141:
	.text
.LHOTE141:
	.section	.text.unlikely
.LCOLDB142:
	.text
.LHOTB142:
	.p2align 4,,15
	.type	SuperUserFromVMRights.part.63, @function
SuperUserFromVMRights.part.63:
.LFB958:
	.loc 20 603 0
	.cfi_startproc
.LVL610:
	subl	$12, %esp
	.cfi_def_cfa_offset 16
	.loc 20 614 0
	pushl	$__func__.7075
	.cfi_def_cfa_offset 20
	pushl	$614
	.cfi_def_cfa_offset 24
	pushl	$.LC138
	.cfi_def_cfa_offset 28
	pushl	$.LC139
	.cfi_def_cfa_offset 32
	call	_fail
.LVL611:
	.cfi_endproc
.LFE958:
	.size	SuperUserFromVMRights.part.63, .-SuperUserFromVMRights.part.63
	.section	.text.unlikely
.LCOLDE142:
	.text
.LHOTE142:
	.section	.text.unlikely
.LCOLDB143:
	.text
.LHOTB143:
	.p2align 4,,15
	.globl	SuperUserFromVMRights
	.type	SuperUserFromVMRights, @function
SuperUserFromVMRights:
.LFB544:
	.loc 20 604 0
	.cfi_startproc
.LVL612:
	subl	$12, %esp
	.cfi_def_cfa_offset 16
	.loc 20 604 0
	movl	16(%esp), %eax
	.loc 20 605 0
	cmpl	$1, %eax
	je	.L569
	jb	.L566
	cmpl	$3, %eax
	ja	.L566
	.loc 20 611 0
	movl	$1, %eax
	.loc 20 616 0
	addl	$12, %esp
	.cfi_remember_state
	.cfi_def_cfa_offset 4
	ret
	.p2align 4,,10
	.p2align 3
.L566:
	.cfi_restore_state
	call	SuperUserFromVMRights.part.63
.LVL613:
	.p2align 4,,10
	.p2align 3
.L569:
	.loc 20 607 0
	xorl	%eax, %eax
	.loc 20 616 0
	addl	$12, %esp
	.cfi_def_cfa_offset 4
	ret
	.cfi_endproc
.LFE544:
	.size	SuperUserFromVMRights, .-SuperUserFromVMRights
	.section	.text.unlikely
.LCOLDE143:
	.text
.LHOTE143:
	.section	.text.unlikely
.LCOLDB144:
	.text
.LHOTB144:
	.p2align 4,,15
	.globl	getObjectSize
	.type	getObjectSize, @function
getObjectSize:
.LFB784:
	.file 45 "/home/axjllt/Desktop/ori_refos/kernel/src/object/objecttype.c"
	.loc 45 34 0
	.cfi_startproc
.LVL614:
	.loc 45 34 0
	movl	4(%esp), %edx
	movl	8(%esp), %ecx
	.loc 45 35 0
	cmpl	$4, %edx
	ja	.L581
	.loc 45 38 0
	cmpl	$3, %edx
	ja	.L574
	.loc 45 42 0
	movl	$4, %eax
	.loc 45 38 0
	cmpl	$2, %edx
	jnb	.L576
	.loc 45 40 0
	movl	$10, %eax
	.loc 45 38 0
	cmpl	$1, %edx
	jne	.L573
.L576:
	.loc 45 54 0
	ret
	.p2align 4,,10
	.p2align 3
.L574:
	.loc 45 46 0
	leal	4(%ecx), %eax
	.loc 45 38 0
	cmpl	$4, %edx
	je	.L576
.LVL615:
.L573:
	.loc 45 48 0
	movl	%ecx, %eax
	.loc 45 54 0
	ret
	.p2align 4,,10
	.p2align 3
.L581:
	.loc 45 36 0
	jmp	Arch_getObjectSize
.LVL616:
	.cfi_endproc
.LFE784:
	.size	getObjectSize, .-getObjectSize
	.section	.text.unlikely
.LCOLDE144:
	.text
.LHOTE144:
	.section	.rodata.str1.4
	.align 4
.LC145:
	.string	"/home/axjllt/Desktop/ori_refos/kernel/include/arch/x86/arch/32/mode/object/structures.h"
	.section	.rodata.str1.1
.LC146:
	.string	"Invalid arch cap type"
	.section	.text.unlikely
.LCOLDB147:
.LHOTB147:
	.type	cap_get_capMappedASID.part.140, @function
cap_get_capMappedASID.part.140:
.LFB1035:
	.file 46 "/home/axjllt/Desktop/ori_refos/kernel/include/arch/x86/arch/32/mode/object/structures.h"
	.loc 46 99 0
	.cfi_startproc
	subl	$12, %esp
	.cfi_def_cfa_offset 16
	.loc 46 115 0
	pushl	$__func__.3028
	.cfi_def_cfa_offset 20
	pushl	$115
	.cfi_def_cfa_offset 24
	pushl	$.LC145
	.cfi_def_cfa_offset 28
	pushl	$.LC146
	.cfi_def_cfa_offset 32
	call	_fail
.LVL617:
	.cfi_endproc
.LFE1035:
	.size	cap_get_capMappedASID.part.140, .-cap_get_capMappedASID.part.140
.LCOLDE147:
.LHOTE147:
	.section	.rodata.str1.4
	.align 4
.LC148:
	.string	"/home/axjllt/Desktop/ori_refos/kernel/src/object/notification.c"
	.align 4
.LC149:
	.string	"tried to complete signal with inactive notification object"
	.section	.text.unlikely
.LCOLDB150:
	.text
.LHOTB150:
	.p2align 4,,15
	.type	completeSignal.part.254, @function
completeSignal.part.254:
.LFB1149:
	.loc 36 207 0
	.cfi_startproc
.LVL618:
	subl	$12, %esp
	.cfi_def_cfa_offset 16
	.loc 36 216 0
	pushl	$__func__.9053
	.cfi_def_cfa_offset 20
	pushl	$216
	.cfi_def_cfa_offset 24
	pushl	$.LC148
	.cfi_def_cfa_offset 28
	pushl	$.LC149
	.cfi_def_cfa_offset 32
	call	_fail
.LVL619:
	.cfi_endproc
.LFE1149:
	.size	completeSignal.part.254, .-completeSignal.part.254
	.section	.text.unlikely
.LCOLDE150:
	.text
.LHOTE150:
	.section	.text.unlikely
.LCOLDB151:
	.text
.LHOTB151:
	.p2align 4,,15
	.globl	completeSignal
	.type	completeSignal, @function
completeSignal:
.LFB779:
	.loc 36 208 0
	.cfi_startproc
.LVL620:
	pushl	%ebx
	.cfi_def_cfa_offset 8
	.cfi_offset 3, -8
	subl	$8, %esp
	.cfi_def_cfa_offset 16
	.loc 36 208 0
	movl	20(%esp), %ecx
	movl	16(%esp), %edx
	.loc 36 211 0
	testl	%ecx, %ecx
	je	.L587
	movl	(%edx), %eax
.LVL621:
	.loc 36 211 0 is_stmt 0 discriminator 1
	movl	%eax, %ebx
	andl	$3, %ebx
	cmpl	$2, %ebx
	jne	.L587
.LVL622:
.LBB6932:
.LBB6933:
	.loc 15 30 0 is_stmt 1
	movl	8(%edx), %ebx
.LBE6933:
.LBE6932:
.LBB6935:
.LBB6936:
	.loc 11 1123 0
	andl	$-4, %eax
.LBE6936:
.LBE6935:
.LBB6938:
.LBB6934:
	.loc 15 30 0
	movl	%ebx, 516(%ecx)
.LVL623:
.LBE6934:
.LBE6938:
.LBB6939:
.LBB6937:
	.loc 11 1123 0
	movl	%eax, (%edx)
.LVL624:
.LBE6937:
.LBE6939:
	.loc 36 218 0
	addl	$8, %esp
	.cfi_remember_state
	.cfi_def_cfa_offset 8
	popl	%ebx
	.cfi_restore 3
	.cfi_def_cfa_offset 4
	ret
.LVL625:
	.p2align 4,,10
	.p2align 3
.L587:
	.cfi_restore_state
	call	completeSignal.part.254
.LVL626:
	.cfi_endproc
.LFE779:
	.size	completeSignal, .-completeSignal
	.section	.text.unlikely
.LCOLDE151:
	.text
.LHOTE151:
	.section	.rodata.str1.4
	.align 4
.LC152:
	.string	"seL4 failed assertion '%s' at %s:%u in function %s\n"
	.section	.text.unlikely
.LCOLDB153:
	.text
.LHOTB153:
	.p2align 4,,15
	.globl	_assert_fail
	.type	_assert_fail, @function
_assert_fail:
.LFB636:
	.loc 44 37 0
	.cfi_startproc
.LVL627:
	subl	$24, %esp
	.cfi_def_cfa_offset 28
	.loc 44 38 0
	pushl	40(%esp)
	.cfi_def_cfa_offset 32
	pushl	40(%esp)
	.cfi_def_cfa_offset 36
	pushl	40(%esp)
	.cfi_def_cfa_offset 40
	pushl	40(%esp)
	.cfi_def_cfa_offset 44
	pushl	$.LC152
	.cfi_def_cfa_offset 48
	call	kprintf
.LVL628:
	.loc 44 44 0
	addl	$32, %esp
	.cfi_def_cfa_offset 16
	call	halt
.LVL629:
	.cfi_endproc
.LFE636:
	.size	_assert_fail, .-_assert_fail
	.section	.text.unlikely
.LCOLDE153:
	.text
.LHOTE153:
	.section	.rodata.str1.4
	.align 4
.LC154:
	.string	"./arch/object/structures_gen.h"
	.align 4
.LC155:
	.string	"(dest_shorthand & ~0x3u) == ((0 && (dest_shorthand & (1u << 31))) ? 0x0 : 0)"
	.section	.text.unlikely
.LCOLDB156:
.LHOTB156:
	.type	apic_icr1_new.part.69, @function
apic_icr1_new.part.69:
.LFB964:
	.loc 11 206 0
	.cfi_startproc
.LVL630:
	subl	$12, %esp
	.cfi_def_cfa_offset 16
	.loc 11 210 0
	pushl	$__FUNCTION__.1386
	.cfi_def_cfa_offset 20
	pushl	$210
	.cfi_def_cfa_offset 24
	pushl	$.LC154
	.cfi_def_cfa_offset 28
	pushl	$.LC155
	.cfi_def_cfa_offset 32
	call	_assert_fail
.LVL631:
	.cfi_endproc
.LFE964:
	.size	apic_icr1_new.part.69, .-apic_icr1_new.part.69
.LCOLDE156:
.LHOTE156:
	.section	.rodata.str1.4
	.align 4
.LC157:
	.string	"(dest & ~0xffu) == ((0 && (dest & (1u << 31))) ? 0x0 : 0)"
	.section	.text.unlikely
.LCOLDB158:
.LHOTB158:
	.type	apic_icr2_new.part.70, @function
apic_icr2_new.part.70:
.LFB965:
	.loc 11 247 0
	.cfi_startproc
.LVL632:
	subl	$12, %esp
	.cfi_def_cfa_offset 16
	.loc 11 251 0
	pushl	$__FUNCTION__.1398
	.cfi_def_cfa_offset 20
	pushl	$251
	.cfi_def_cfa_offset 24
	pushl	$.LC154
	.cfi_def_cfa_offset 28
	pushl	$.LC157
	.cfi_def_cfa_offset 32
	call	_assert_fail
.LVL633:
	.cfi_endproc
.LFE965:
	.size	apic_icr2_new.part.70, .-apic_icr2_new.part.70
.LCOLDE158:
.LHOTE158:
	.section	.rodata.str1.4
	.align 4
.LC159:
	.string	"(timer_mode & ~0x3u) == ((0 && (timer_mode & (1u << 31))) ? 0x0 : 0)"
	.section	.text.unlikely
.LCOLDB160:
.LHOTB160:
	.type	apic_lvt_new.part.71, @function
apic_lvt_new.part.71:
.LFB966:
	.loc 11 770 0
	.cfi_startproc
.LVL634:
	subl	$12, %esp
	.cfi_def_cfa_offset 16
	.loc 11 774 0
	pushl	$__FUNCTION__.1640
	.cfi_def_cfa_offset 20
	pushl	$774
	.cfi_def_cfa_offset 24
	pushl	$.LC154
	.cfi_def_cfa_offset 28
	pushl	$.LC159
	.cfi_def_cfa_offset 32
	call	_assert_fail
.LVL635:
	.cfi_endproc
.LFE966:
	.size	apic_lvt_new.part.71, .-apic_lvt_new.part.71
.LCOLDE160:
.LHOTE160:
	.section	.rodata.str1.4
	.align 4
.LC161:
	.string	"((seL4_Fault.words[0] >> 0) & 0x7) == seL4_Fault_CapFault"
	.section	.text.unlikely
.LCOLDB162:
.LHOTB162:
	.type	seL4_Fault_CapFault_get_address.part.73, @function
seL4_Fault_CapFault_get_address.part.73:
.LFB968:
	.loc 11 1626 0
	.cfi_startproc
	subl	$12, %esp
	.cfi_def_cfa_offset 16
	.loc 11 1628 0
	pushl	$__FUNCTION__.2005
	.cfi_def_cfa_offset 20
	pushl	$1629
	.cfi_def_cfa_offset 24
	pushl	$.LC154
	.cfi_def_cfa_offset 28
	pushl	$.LC161
	.cfi_def_cfa_offset 32
	call	_assert_fail
.LVL636:
	.cfi_endproc
.LFE968:
	.size	seL4_Fault_CapFault_get_address.part.73, .-seL4_Fault_CapFault_get_address.part.73
.LCOLDE162:
.LHOTE162:
.LCOLDB163:
.LHOTB163:
	.type	seL4_Fault_CapFault_get_inReceivePhase.isra.74.part.75, @function
seL4_Fault_CapFault_get_inReceivePhase.isra.74.part.75:
.LFB970:
	.loc 11 1640 0
	.cfi_startproc
	subl	$12, %esp
	.cfi_def_cfa_offset 16
	.loc 11 1642 0
	pushl	$__FUNCTION__.2010
	.cfi_def_cfa_offset 20
	pushl	$1643
	.cfi_def_cfa_offset 24
	pushl	$.LC154
	.cfi_def_cfa_offset 28
	pushl	$.LC161
	.cfi_def_cfa_offset 32
	call	_assert_fail
.LVL637:
	.cfi_endproc
.LFE970:
	.size	seL4_Fault_CapFault_get_inReceivePhase.isra.74.part.75, .-seL4_Fault_CapFault_get_inReceivePhase.isra.74.part.75
.LCOLDE163:
.LHOTE163:
	.section	.rodata.str1.4
	.align 4
.LC164:
	.string	"/home/axjllt/Desktop/ori_refos/kernel/src/object/tcb.c"
	.section	.rodata.str1.1
.LC165:
	.string	"Invalid syscall error"
	.section	.text.unlikely
.LCOLDB166:
	.text
.LHOTB166:
	.p2align 4,,15
	.globl	setMRs_syscall_error
	.type	setMRs_syscall_error, @function
setMRs_syscall_error:
.LFB834:
	.loc 31 1587 0
	.cfi_startproc
.LVL638:
	pushl	%esi
	.cfi_def_cfa_offset 8
	.cfi_offset 6, -8
	pushl	%ebx
	.cfi_def_cfa_offset 12
	.cfi_offset 3, -12
	subl	$4, %esp
	.cfi_def_cfa_offset 16
	.loc 31 1588 0
	movl	current_syscall_error+24, %eax
	cmpl	$10, %eax
	ja	.L606
	jmp	*.L608(,%eax,4)
	.section	.rodata
	.align 4
	.align 4
.L608:
	.long	.L606
	.long	.L607
	.long	.L609
	.long	.L617
	.long	.L611
	.long	.L617
	.long	.L612
	.long	.L617
	.long	.L617
	.long	.L617
	.long	.L613
	.text
	.p2align 4,,10
	.p2align 3
.L617:
	.loc 31 1598 0
	xorl	%eax, %eax
.L610:
	.loc 31 1625 0
	addl	$4, %esp
	.cfi_remember_state
	.cfi_def_cfa_offset 12
	popl	%ebx
	.cfi_restore 3
	.cfi_def_cfa_offset 8
	popl	%esi
	.cfi_restore 6
	.cfi_def_cfa_offset 4
	ret
	.p2align 4,,10
	.p2align 3
.L611:
	.cfi_restore_state
.LVL639:
.LBB7025:
.LBB7026:
.LBB7027:
	.loc 15 30 0
	movl	16(%esp), %ebx
	movl	current_syscall_error+8, %eax
	movl	%eax, 532(%ebx)
.LVL640:
.LBE7027:
.LBE7026:
.LBE7025:
.LBB7028:
.LBB7029:
.LBB7030:
	movl	current_syscall_error+12, %eax
	movl	%eax, 536(%ebx)
.LVL641:
.LBE7030:
.LBE7029:
.LBE7028:
	.loc 31 1625 0
	addl	$4, %esp
	.cfi_remember_state
	.cfi_def_cfa_offset 12
	.loc 31 1603 0
	movl	$2, %eax
	.loc 31 1625 0
	popl	%ebx
	.cfi_restore 3
	.cfi_def_cfa_offset 8
	popl	%esi
	.cfi_restore 6
	.cfi_def_cfa_offset 4
	ret
	.p2align 4,,10
	.p2align 3
.L613:
	.cfi_restore_state
.LVL642:
.LBB7031:
.LBB7032:
.LBB7033:
	.loc 15 30 0
	movl	current_syscall_error+16, %eax
	movl	16(%esp), %esi
	movl	%eax, 532(%esi)
.LVL643:
.LBE7033:
.LBE7032:
.LBE7031:
	.loc 31 1625 0
	addl	$4, %esp
	.cfi_remember_state
	.cfi_def_cfa_offset 12
	.loc 31 1620 0
	movl	$1, %eax
	.loc 31 1625 0
	popl	%ebx
	.cfi_restore 3
	.cfi_def_cfa_offset 8
	popl	%esi
	.cfi_restore 6
	.cfi_def_cfa_offset 4
	ret
	.p2align 4,,10
	.p2align 3
.L612:
	.cfi_restore_state
.LVL644:
.LBB7034:
.LBB7035:
.LBB7036:
.LBB7037:
.LBB7038:
	.loc 15 30 0
	movl	current_syscall_error+20, %esi
	xorl	%eax, %eax
	movl	16(%esp), %ebx
	movl	current_lookup_fault, %edx
	testl	%esi, %esi
.LBE7038:
.LBE7037:
.LBE7036:
.LBB7041:
.LBB7042:
.LBB7043:
.LBB7044:
.LBB7045:
	movl	16(%esp), %esi
.LBE7045:
.LBE7044:
.LBE7043:
.LBE7042:
.LBE7041:
.LBB7085:
.LBB7040:
.LBB7039:
	setne	%al
	movl	%eax, 532(%ebx)
.LVL645:
.LBE7039:
.LBE7040:
.LBE7085:
.LBB7086:
.LBB7083:
.LBB7048:
.LBB7049:
	.loc 11 1142 0
	movl	%edx, %eax
	movl	current_lookup_fault+4, %ebx
.LVL646:
	andl	$3, %eax
.LVL647:
.LBE7049:
.LBE7048:
.LBB7050:
.LBB7047:
.LBB7046:
	.loc 15 30 0
	leal	1(%eax), %ecx
.LVL648:
	movl	%ecx, 536(%esi)
.LVL649:
.LBE7046:
.LBE7047:
.LBE7050:
	.file 47 "/home/axjllt/Desktop/ori_refos/kernel/src/api/faults.c"
	.loc 47 49 0
	cmpl	$2, %eax
	je	.L614
	cmpl	$3, %eax
	je	.L615
	cmpl	$1, %eax
	je	.L624
.LVL650:
.L621:
.LBB7051:
.LBB7052:
	.file 48 "/home/axjllt/Desktop/ori_refos/kernel/include/object/tcb.h"
	.loc 48 42 0
	movl	$2, %eax
	jmp	.L610
.LVL651:
	.p2align 4,,10
	.p2align 3
.L607:
.LBE7052:
.LBE7051:
.LBE7083:
.LBE7086:
.LBE7035:
.LBE7034:
.LBB7089:
.LBB7090:
.LBB7091:
	.loc 15 30 0
	movl	16(%esp), %ebx
	movl	current_syscall_error, %edx
	movl	%edx, 532(%ebx)
.LVL652:
.LBE7091:
.LBE7090:
.LBE7089:
	.loc 31 1625 0
	addl	$4, %esp
	.cfi_remember_state
	.cfi_def_cfa_offset 12
	popl	%ebx
	.cfi_restore 3
	.cfi_def_cfa_offset 8
	popl	%esi
	.cfi_restore 6
	.cfi_def_cfa_offset 4
	ret
	.p2align 4,,10
	.p2align 3
.L609:
	.cfi_restore_state
.LVL653:
.LBB7092:
.LBB7093:
.LBB7094:
	.loc 15 30 0
	movl	current_syscall_error+4, %eax
	movl	16(%esp), %ecx
	movl	%eax, 532(%ecx)
.LVL654:
.LBE7094:
.LBE7093:
.LBE7092:
	.loc 31 1625 0
	addl	$4, %esp
	.cfi_remember_state
	.cfi_def_cfa_offset 12
	.loc 31 1594 0
	movl	$1, %eax
	.loc 31 1625 0
	popl	%ebx
	.cfi_restore 3
	.cfi_def_cfa_offset 8
	popl	%esi
	.cfi_restore 6
	.cfi_def_cfa_offset 4
	ret
	.p2align 4,,10
	.p2align 3
.L606:
	.cfi_restore_state
	.loc 31 1623 0
	pushl	$__func__.9609
	.cfi_remember_state
	.cfi_def_cfa_offset 20
	pushl	$1623
	.cfi_def_cfa_offset 24
	pushl	$.LC164
	.cfi_def_cfa_offset 28
	pushl	$.LC165
	.cfi_def_cfa_offset 32
	call	_fail
.LVL655:
	.p2align 4,,10
	.p2align 3
.L624:
	.cfi_restore_state
.LBB7095:
.LBB7088:
.LBB7087:
.LBB7084:
.LBB7054:
.LBB7053:
	.loc 48 38 0
	movl	20(%esp), %ebx
.LVL656:
	testl	%ebx, %ebx
	je	.L621
	.loc 48 39 0
	movl	20(%esp), %eax
	andl	$252, %edx
.LVL657:
	shrl	$2, %edx
	movl	%edx, 12(%eax)
	.loc 48 40 0
	movl	$3, %eax
	jmp	.L610
.LVL658:
	.p2align 4,,10
	.p2align 3
.L615:
.LBE7053:
.LBE7054:
.LBB7055:
.LBB7056:
	.loc 48 38 0
	movl	20(%esp), %eax
	testl	%eax, %eax
	je	.L621
	.loc 48 39 0
	movl	20(%esp), %esi
	movl	%edx, %eax
.LBE7056:
.LBE7055:
.LBB7059:
.LBB7060:
	andl	$252, %edx
.LVL659:
.LBE7060:
.LBE7059:
.LBB7064:
.LBB7057:
	andl	$16128, %eax
.LBE7057:
.LBE7064:
.LBB7065:
.LBB7061:
	shrl	$2, %edx
.LBE7061:
.LBE7065:
.LBB7066:
.LBB7058:
	shrl	$8, %eax
	movl	%eax, 12(%esi)
.LVL660:
.LBE7058:
.LBE7066:
.LBB7067:
.LBB7062:
	.loc 48 40 0
	movl	$5, %eax
.LBE7062:
.LBE7067:
.LBB7068:
.LBB7069:
	.loc 48 39 0
	movl	%ebx, 16(%esi)
.LVL661:
.LBE7069:
.LBE7068:
.LBB7070:
.LBB7063:
	movl	%edx, 20(%esi)
	jmp	.L610
.LVL662:
	.p2align 4,,10
	.p2align 3
.L614:
.LBE7063:
.LBE7070:
.LBB7071:
.LBB7072:
	.loc 48 38 0
	movl	20(%esp), %ecx
	testl	%ecx, %ecx
	je	.L621
	.loc 48 39 0
	movl	20(%esp), %esi
	movl	%edx, %eax
.LBE7072:
.LBE7071:
.LBB7075:
.LBB7076:
	andl	$16128, %edx
.LVL663:
.LBE7076:
.LBE7075:
.LBB7079:
.LBB7073:
	andl	$252, %eax
.LBE7073:
.LBE7079:
.LBB7080:
.LBB7077:
	shrl	$8, %edx
.LBE7077:
.LBE7080:
.LBB7081:
.LBB7074:
	shrl	$2, %eax
	movl	%eax, 12(%esi)
.LVL664:
.LBE7074:
.LBE7081:
.LBB7082:
.LBB7078:
	.loc 48 40 0
	movl	$4, %eax
	.loc 48 39 0
	movl	%edx, 16(%esi)
	jmp	.L610
.LBE7078:
.LBE7082:
.LBE7084:
.LBE7087:
.LBE7088:
.LBE7095:
	.cfi_endproc
.LFE834:
	.size	setMRs_syscall_error, .-setMRs_syscall_error
	.section	.text.unlikely
.LCOLDE166:
	.text
.LHOTE166:
	.section	.rodata.str1.4
	.align 4
.LC167:
	.string	"((seL4_Fault.words[0] >> 0) & 0x7) == seL4_Fault_UnknownSyscall"
	.section	.text.unlikely
.LCOLDB168:
.LHOTB168:
	.type	seL4_Fault_UnknownSyscall_get_syscallNumber.part.83, @function
seL4_Fault_UnknownSyscall_get_syscallNumber.part.83:
.LFB978:
	.loc 11 1669 0
	.cfi_startproc
	subl	$12, %esp
	.cfi_def_cfa_offset 16
	.loc 11 1671 0
	pushl	$__FUNCTION__.2020
	.cfi_def_cfa_offset 20
	pushl	$1672
	.cfi_def_cfa_offset 24
	pushl	$.LC154
	.cfi_def_cfa_offset 28
	pushl	$.LC167
	.cfi_def_cfa_offset 32
	call	_assert_fail
.LVL665:
	.cfi_endproc
.LFE978:
	.size	seL4_Fault_UnknownSyscall_get_syscallNumber.part.83, .-seL4_Fault_UnknownSyscall_get_syscallNumber.part.83
.LCOLDE168:
.LHOTE168:
	.section	.rodata.str1.4
	.align 4
.LC169:
	.string	"((seL4_Fault.words[0] >> 0) & 0x7) == seL4_Fault_UserException"
	.section	.text.unlikely
.LCOLDB170:
.LHOTB170:
	.type	seL4_Fault_UserException_get_number.part.84, @function
seL4_Fault_UserException_get_number.part.84:
.LFB979:
	.loc 11 1700 0
	.cfi_startproc
	subl	$12, %esp
	.cfi_def_cfa_offset 16
	.loc 11 1702 0
	pushl	$__FUNCTION__.2031
	.cfi_def_cfa_offset 20
	pushl	$1703
	.cfi_def_cfa_offset 24
	pushl	$.LC154
	.cfi_def_cfa_offset 28
	pushl	$.LC169
	.cfi_def_cfa_offset 32
	call	_assert_fail
.LVL666:
	.cfi_endproc
.LFE979:
	.size	seL4_Fault_UserException_get_number.part.84, .-seL4_Fault_UserException_get_number.part.84
.LCOLDE170:
.LHOTE170:
.LCOLDB171:
.LHOTB171:
	.type	seL4_Fault_UserException_get_code.isra.85.part.86, @function
seL4_Fault_UserException_get_code.isra.85.part.86:
.LFB981:
	.loc 11 1714 0
	.cfi_startproc
	subl	$12, %esp
	.cfi_def_cfa_offset 16
	.loc 11 1716 0
	pushl	$__FUNCTION__.2036
	.cfi_def_cfa_offset 20
	pushl	$1717
	.cfi_def_cfa_offset 24
	pushl	$.LC154
	.cfi_def_cfa_offset 28
	pushl	$.LC169
	.cfi_def_cfa_offset 32
	call	_assert_fail
.LVL667:
	.cfi_endproc
.LFE981:
	.size	seL4_Fault_UserException_get_code.isra.85.part.86, .-seL4_Fault_UserException_get_code.isra.85.part.86
.LCOLDE171:
.LHOTE171:
	.section	.rodata.str1.4
	.align 4
.LC172:
	.string	"/home/axjllt/Desktop/ori_refos/kernel/include/plat/pc99/plat/machine/interrupt.h"
	.align 4
.LC173:
	.string	"ARCH_NODE_STATE(x86KSPendingInterrupt) == int_invalid"
	.section	.text.unlikely
.LCOLDB174:
	.text
.LHOTB174:
	.p2align 4,,15
	.type	receivePendingIRQ.part.87, @function
receivePendingIRQ.part.87:
.LFB982:
	.file 49 "/home/axjllt/Desktop/ori_refos/kernel/include/plat/pc99/plat/machine/interrupt.h"
	.loc 49 39 0
	.cfi_startproc
	subl	$12, %esp
	.cfi_def_cfa_offset 16
	.loc 49 41 0
	pushl	$__FUNCTION__.4660
	.cfi_def_cfa_offset 20
	pushl	$41
	.cfi_def_cfa_offset 24
	pushl	$.LC172
	.cfi_def_cfa_offset 28
	pushl	$.LC173
	.cfi_def_cfa_offset 32
	call	_assert_fail
.LVL668:
	.cfi_endproc
.LFE982:
	.size	receivePendingIRQ.part.87, .-receivePendingIRQ.part.87
	.section	.text.unlikely
.LCOLDE174:
	.text
.LHOTE174:
	.section	.rodata.str1.4
	.align 4
.LC175:
	.string	"ARCH_NODE_STATE(x86KScurInterrupt) == int_invalid"
	.section	.text.unlikely
.LCOLDB176:
.LHOTB176:
	.type	servicePendingIRQ.part.88, @function
servicePendingIRQ.part.88:
.LFB983:
	.loc 49 49 0
	.cfi_startproc
	subl	$12, %esp
	.cfi_def_cfa_offset 16
	.loc 49 51 0
	pushl	$__FUNCTION__.4664
	.cfi_def_cfa_offset 20
	pushl	$51
	.cfi_def_cfa_offset 24
	pushl	$.LC172
	.cfi_def_cfa_offset 28
	pushl	$.LC175
	.cfi_def_cfa_offset 32
	call	_assert_fail
.LVL669:
	.cfi_endproc
.LFE983:
	.size	servicePendingIRQ.part.88, .-servicePendingIRQ.part.88
.LCOLDE176:
.LHOTE176:
	.section	.rodata.str1.4
	.align 4
.LC177:
	.string	"((cap.words[0] >> 0) & 0xf) == cap_thread_cap"
	.section	.text.unlikely
.LCOLDB178:
.LHOTB178:
	.type	cap_thread_cap_get_capTCBPtr.isra.89.part.90, @function
cap_thread_cap_get_capTCBPtr.isra.89.part.90:
.LFB985:
	.loc 11 2766 0
	.cfi_startproc
	subl	$12, %esp
	.cfi_def_cfa_offset 16
	.loc 11 2768 0
	pushl	$__FUNCTION__.2453
	.cfi_def_cfa_offset 20
	pushl	$2769
	.cfi_def_cfa_offset 24
	pushl	$.LC154
	.cfi_def_cfa_offset 28
	pushl	$.LC177
	.cfi_def_cfa_offset 32
	call	_assert_fail
.LVL670:
	.cfi_endproc
.LFE985:
	.size	cap_thread_cap_get_capTCBPtr.isra.89.part.90, .-cap_thread_cap_get_capTCBPtr.isra.89.part.90
.LCOLDE178:
.LHOTE178:
	.section	.rodata.str1.4
	.align 4
.LC179:
	.string	"((cap.words[0] >> 0) & 0xf) == cap_reply_cap"
	.section	.text.unlikely
.LCOLDB180:
.LHOTB180:
	.type	cap_reply_cap_get_capReplyMaster.isra.92.part.93, @function
cap_reply_cap_get_capReplyMaster.isra.92.part.93:
.LFB988:
	.loc 11 2634 0
	.cfi_startproc
	subl	$12, %esp
	.cfi_def_cfa_offset 16
	.loc 11 2636 0
	pushl	$__FUNCTION__.2405
	.cfi_def_cfa_offset 20
	pushl	$2637
	.cfi_def_cfa_offset 24
	pushl	$.LC154
	.cfi_def_cfa_offset 28
	pushl	$.LC179
	.cfi_def_cfa_offset 32
	call	_assert_fail
.LVL671:
	.cfi_endproc
.LFE988:
	.size	cap_reply_cap_get_capReplyMaster.isra.92.part.93, .-cap_reply_cap_get_capReplyMaster.isra.92.part.93
.LCOLDE180:
.LHOTE180:
.LCOLDB181:
	.text
.LHOTB181:
	.p2align 4,,15
	.type	cap_reply_cap_get_capTCBPtr.isra.94.part.95, @function
cap_reply_cap_get_capTCBPtr.isra.94.part.95:
.LFB990:
	.loc 11 2620 0
	.cfi_startproc
	subl	$12, %esp
	.cfi_def_cfa_offset 16
	.loc 11 2622 0
	pushl	$__FUNCTION__.2400
	.cfi_def_cfa_offset 20
	pushl	$2623
	.cfi_def_cfa_offset 24
	pushl	$.LC154
	.cfi_def_cfa_offset 28
	pushl	$.LC179
	.cfi_def_cfa_offset 32
	call	_assert_fail
.LVL672:
	.cfi_endproc
.LFE990:
	.size	cap_reply_cap_get_capTCBPtr.isra.94.part.95, .-cap_reply_cap_get_capTCBPtr.isra.94.part.95
	.section	.text.unlikely
.LCOLDE181:
	.text
.LHOTE181:
	.section	.rodata.str1.4
	.align 4
.LC182:
	.string	"((cap.words[0] >> 0) & 0xf) == cap_endpoint_cap"
	.section	.text.unlikely
.LCOLDB183:
	.text
.LHOTB183:
	.p2align 4,,15
	.type	cap_endpoint_cap_get_capCanReceive.part.96, @function
cap_endpoint_cap_get_capCanReceive.part.96:
.LFB991:
	.loc 11 2396 0
	.cfi_startproc
	subl	$12, %esp
	.cfi_def_cfa_offset 16
	.loc 11 2398 0
	pushl	$__FUNCTION__.2315
	.cfi_def_cfa_offset 20
	pushl	$2399
	.cfi_def_cfa_offset 24
	pushl	$.LC154
	.cfi_def_cfa_offset 28
	pushl	$.LC182
	.cfi_def_cfa_offset 32
	call	_assert_fail
.LVL673:
	.cfi_endproc
.LFE991:
	.size	cap_endpoint_cap_get_capCanReceive.part.96, .-cap_endpoint_cap_get_capCanReceive.part.96
	.section	.text.unlikely
.LCOLDE183:
	.text
.LHOTE183:
	.section	.rodata.str1.4
	.align 4
.LC184:
	.string	"((cap.words[0] >> 0) & 0xf) == cap_notification_cap"
	.section	.text.unlikely
.LCOLDB185:
.LHOTB185:
	.type	cap_notification_cap_get_capNtfnPtr.isra.97.part.98, @function
cap_notification_cap_get_capNtfnPtr.isra.97.part.98:
.LFB993:
	.loc 11 2574 0
	.cfi_startproc
	subl	$12, %esp
	.cfi_def_cfa_offset 16
	.loc 11 2576 0
	pushl	$__FUNCTION__.2383
	.cfi_def_cfa_offset 20
	pushl	$2577
	.cfi_def_cfa_offset 24
	pushl	$.LC154
	.cfi_def_cfa_offset 28
	pushl	$.LC184
	.cfi_def_cfa_offset 32
	call	_assert_fail
.LVL674:
	.cfi_endproc
.LFE993:
	.size	cap_notification_cap_get_capNtfnPtr.isra.97.part.98, .-cap_notification_cap_get_capNtfnPtr.isra.97.part.98
.LCOLDE185:
.LHOTE185:
.LCOLDB186:
.LHOTB186:
	.type	cap_notification_cap_get_capNtfnCanReceive.part.99, @function
cap_notification_cap_get_capNtfnCanReceive.part.99:
.LFB994:
	.loc 11 2522 0
	.cfi_startproc
	subl	$12, %esp
	.cfi_def_cfa_offset 16
	.loc 11 2524 0
	pushl	$__FUNCTION__.2363
	.cfi_def_cfa_offset 20
	pushl	$2525
	.cfi_def_cfa_offset 24
	pushl	$.LC154
	.cfi_def_cfa_offset 28
	pushl	$.LC184
	.cfi_def_cfa_offset 32
	call	_assert_fail
.LVL675:
	.cfi_endproc
.LFE994:
	.size	cap_notification_cap_get_capNtfnCanReceive.part.99, .-cap_notification_cap_get_capNtfnCanReceive.part.99
.LCOLDE186:
.LHOTE186:
	.section	.rodata.str1.4
	.align 4
.LC187:
	.string	"(bitsLeft & ~0x3fu) == ((0 && (bitsLeft & (1u << 31))) ? 0x0 : 0)"
	.section	.text.unlikely
.LCOLDB188:
.LHOTB188:
	.type	lookup_fault_missing_capability_new.part.100, @function
lookup_fault_missing_capability_new.part.100:
.LFB995:
	.loc 11 1160 0
	.cfi_startproc
.LVL676:
	subl	$12, %esp
	.cfi_def_cfa_offset 16
	.loc 11 1164 0
	pushl	$__FUNCTION__.1811
	.cfi_def_cfa_offset 20
	pushl	$1164
	.cfi_def_cfa_offset 24
	pushl	$.LC154
	.cfi_def_cfa_offset 28
	pushl	$.LC187
	.cfi_def_cfa_offset 32
	call	_assert_fail
.LVL677:
	.cfi_endproc
.LFE995:
	.size	lookup_fault_missing_capability_new.part.100, .-lookup_fault_missing_capability_new.part.100
.LCOLDE188:
.LHOTE188:
	.section	.rodata.str1.4
	.align 4
.LC189:
	.string	"((gdt_entry_ptr->words[1] >> 10) & 0x7) == gdt_entry_gdt_data"
	.section	.text.unlikely
.LCOLDB190:
.LHOTB190:
	.type	gdt_entry_gdt_data_ptr_set_base_low.part.101, @function
gdt_entry_gdt_data_ptr_set_base_low.part.101:
.LFB996:
	.loc 11 1520 0
	.cfi_startproc
.LVL678:
	subl	$12, %esp
	.cfi_def_cfa_offset 16
	.loc 11 1522 0
	pushl	$__FUNCTION__.1957
	.cfi_def_cfa_offset 20
	pushl	$1523
	.cfi_def_cfa_offset 24
	pushl	$.LC154
	.cfi_def_cfa_offset 28
	pushl	$.LC189
	.cfi_def_cfa_offset 32
	call	_assert_fail
.LVL679:
	.cfi_endproc
.LFE996:
	.size	gdt_entry_gdt_data_ptr_set_base_low.part.101, .-gdt_entry_gdt_data_ptr_set_base_low.part.101
.LCOLDE190:
.LHOTE190:
	.section	.rodata.str1.4
	.align 4
.LC191:
	.string	"(((~0xffu >> 0) | 0x0) & v32) == ((0 && (v32 & (1u << (31)))) ? 0x0 : 0)"
	.section	.text.unlikely
.LCOLDB192:
	.text
.LHOTB192:
	.p2align 4,,15
	.type	gdt_entry_gdt_data_ptr_set_base_mid.isra.102, @function
gdt_entry_gdt_data_ptr_set_base_mid.isra.102:
.LFB997:
	.loc 11 1507 0
	.cfi_startproc
.LVL680:
	pushl	%ebx
	.cfi_def_cfa_offset 8
	.cfi_offset 3, -8
	subl	$8, %esp
	.cfi_def_cfa_offset 16
	.loc 11 1509 0
	movl	(%eax), %ecx
	movl	%ecx, %ebx
	shrl	$10, %ebx
	andl	$7, %ebx
	cmpl	$4, %ebx
	jne	.L655
	.loc 11 1513 0
	testl	$-256, %edx
	jne	.L656
	.loc 11 1516 0
	xorb	%cl, %cl
	orl	%edx, %ecx
	movl	%ecx, (%eax)
	.loc 11 1517 0
	addl	$8, %esp
	.cfi_remember_state
	.cfi_def_cfa_offset 8
	popl	%ebx
	.cfi_restore 3
	.cfi_def_cfa_offset 4
	ret
.L655:
	.cfi_restore_state
.LVL681:
.LBB7098:
.LBB7099:
	.loc 11 1509 0
	pushl	$__FUNCTION__.1952
	.cfi_remember_state
	.cfi_def_cfa_offset 20
	pushl	$1510
	.cfi_def_cfa_offset 24
	pushl	$.LC154
	.cfi_def_cfa_offset 28
	pushl	$.LC189
	.cfi_def_cfa_offset 32
	call	_assert_fail
.LVL682:
.L656:
	.cfi_restore_state
.LBE7099:
.LBE7098:
	.loc 11 1513 0
	pushl	$__FUNCTION__.1952
	.cfi_def_cfa_offset 20
	pushl	$1513
	.cfi_def_cfa_offset 24
	pushl	$.LC154
	.cfi_def_cfa_offset 28
	pushl	$.LC191
	.cfi_def_cfa_offset 32
	call	_assert_fail
.LVL683:
	.cfi_endproc
.LFE997:
	.size	gdt_entry_gdt_data_ptr_set_base_mid.isra.102, .-gdt_entry_gdt_data_ptr_set_base_mid.isra.102
	.section	.text.unlikely
.LCOLDE192:
	.text
.LHOTE192:
	.section	.text.unlikely
.LCOLDB193:
.LHOTB193:
	.type	gdt_entry_gdt_data_ptr_set_base_high.isra.104.part.105, @function
gdt_entry_gdt_data_ptr_set_base_high.isra.104.part.105:
.LFB1000:
	.loc 11 1494 0
	.cfi_startproc
.LVL684:
	subl	$12, %esp
	.cfi_def_cfa_offset 16
	.loc 11 1496 0
	pushl	$__FUNCTION__.1947
	.cfi_def_cfa_offset 20
	pushl	$1497
	.cfi_def_cfa_offset 24
	pushl	$.LC154
	.cfi_def_cfa_offset 28
	pushl	$.LC189
	.cfi_def_cfa_offset 32
	call	_assert_fail
.LVL685:
	.cfi_endproc
.LFE1000:
	.size	gdt_entry_gdt_data_ptr_set_base_high.isra.104.part.105, .-gdt_entry_gdt_data_ptr_set_base_high.isra.104.part.105
.LCOLDE193:
.LHOTE193:
.LCOLDB194:
	.text
.LHOTB194:
	.p2align 4,,15
	.type	x86_write_gs_base.isra.53, @function
x86_write_gs_base.isra.53:
.LFB948:
	.loc 10 269 0
	.cfi_startproc
.LVL686:
	.loc 10 271 0
	cmpl	%eax, x86KSCurrentGSBase
	je	.L665
	.loc 10 269 0
	pushl	%ebx
	.cfi_def_cfa_offset 8
	.cfi_offset 3, -8
	movl	%eax, %ebx
	subl	$8, %esp
	.cfi_def_cfa_offset 16
	.loc 10 272 0
	movl	%eax, x86KSCurrentGSBase
.LVL687:
.LBB7106:
.LBB7107:
.LBB7108:
.LBB7109:
	.loc 11 1522 0
	movl	x86KSgdt+52, %eax
.LVL688:
	shrl	$10, %eax
	andl	$7, %eax
	cmpl	$4, %eax
	jne	.L666
.LBE7109:
.LBE7108:
	.file 50 "/home/axjllt/Desktop/ori_refos/kernel/include/arch/x86/arch/32/mode/machine.h"
	.loc 50 133 0
	movl	%ebx, %edx
	movl	$x86KSgdt+52, %eax
.LBB7112:
.LBB7110:
	.loc 11 1529 0
	movw	%bx, x86KSgdt+50
.LVL689:
.LBE7110:
.LBE7112:
	.loc 50 134 0
	shrl	$24, %ebx
.LVL690:
	.loc 50 133 0
	shrl	$16, %edx
.LVL691:
	movzbl	%dl, %edx
	call	gdt_entry_gdt_data_ptr_set_base_mid.isra.102
.LVL692:
.LBB7113:
.LBB7114:
	.loc 11 1496 0
	movl	x86KSgdt+52, %eax
	movl	%eax, %edx
	shrl	$10, %edx
	andl	$7, %edx
	cmpl	$4, %edx
	jne	.L667
	.loc 11 1503 0
	andl	$16777215, %eax
	sall	$24, %ebx
	orl	%eax, %ebx
	movl	%ebx, x86KSgdt+52
.LBE7114:
.LBE7113:
.LBE7107:
.LBE7106:
	.loc 10 275 0
	addl	$8, %esp
	.cfi_def_cfa_offset 8
	popl	%ebx
	.cfi_restore 3
	.cfi_def_cfa_offset 4
.LVL693:
.L665:
	ret
.LVL694:
.L666:
	.cfi_def_cfa_offset 16
	.cfi_offset 3, -8
.LBB7119:
.LBB7118:
.LBB7116:
.LBB7111:
	call	gdt_entry_gdt_data_ptr_set_base_low.part.101
.LVL695:
.L667:
.LBE7111:
.LBE7116:
.LBB7117:
.LBB7115:
	call	gdt_entry_gdt_data_ptr_set_base_high.isra.104.part.105
.LVL696:
.LBE7115:
.LBE7117:
.LBE7118:
.LBE7119:
	.cfi_endproc
.LFE948:
	.size	x86_write_gs_base.isra.53, .-x86_write_gs_base.isra.53
	.section	.text.unlikely
.LCOLDE194:
	.text
.LHOTE194:
	.section	.text.unlikely
.LCOLDB195:
	.text
.LHOTB195:
	.p2align 4,,15
	.type	x86_write_fs_base.isra.37.part.38, @function
x86_write_fs_base.isra.37.part.38:
.LFB933:
	.loc 10 261 0
	.cfi_startproc
.LVL697:
	pushl	%ebx
	.cfi_def_cfa_offset 8
	.cfi_offset 3, -8
	movl	%eax, %ebx
	subl	$8, %esp
	.cfi_def_cfa_offset 16
	.loc 10 264 0
	movl	%eax, x86KSCurrentFSBase
.LVL698:
.LBB7126:
.LBB7127:
.LBB7128:
.LBB7129:
	.loc 11 1522 0
	movl	x86KSgdt+60, %eax
.LVL699:
	shrl	$10, %eax
	andl	$7, %eax
	cmpl	$4, %eax
	jne	.L672
.LBE7129:
.LBE7128:
	.loc 50 126 0
	movl	%ebx, %edx
	movl	$x86KSgdt+60, %eax
.LBB7132:
.LBB7130:
	.loc 11 1529 0
	movw	%bx, x86KSgdt+58
.LVL700:
.LBE7130:
.LBE7132:
	.loc 50 127 0
	shrl	$24, %ebx
.LVL701:
	.loc 50 126 0
	shrl	$16, %edx
.LVL702:
	movzbl	%dl, %edx
	call	gdt_entry_gdt_data_ptr_set_base_mid.isra.102
.LVL703:
.LBB7133:
.LBB7134:
	.loc 11 1496 0
	movl	x86KSgdt+60, %eax
	movl	%eax, %edx
	shrl	$10, %edx
	andl	$7, %edx
	cmpl	$4, %edx
	jne	.L673
	.loc 11 1503 0
	andl	$16777215, %eax
	sall	$24, %ebx
	orl	%eax, %ebx
	movl	%ebx, x86KSgdt+60
.LBE7134:
.LBE7133:
.LBE7127:
.LBE7126:
	.loc 10 267 0
	addl	$8, %esp
	.cfi_remember_state
	.cfi_def_cfa_offset 8
	popl	%ebx
	.cfi_restore 3
	.cfi_def_cfa_offset 4
	ret
.LVL704:
.L672:
	.cfi_restore_state
.LBB7139:
.LBB7138:
.LBB7136:
.LBB7131:
	call	gdt_entry_gdt_data_ptr_set_base_low.part.101
.LVL705:
.L673:
.LBE7131:
.LBE7136:
.LBB7137:
.LBB7135:
	call	gdt_entry_gdt_data_ptr_set_base_high.isra.104.part.105
.LVL706:
.LBE7135:
.LBE7137:
.LBE7138:
.LBE7139:
	.cfi_endproc
.LFE933:
	.size	x86_write_fs_base.isra.37.part.38, .-x86_write_fs_base.isra.37.part.38
	.section	.text.unlikely
.LCOLDE195:
	.text
.LHOTE195:
	.section	.text.unlikely
.LCOLDB196:
	.text
.LHOTB196:
	.p2align 4,,15
	.globl	restore_user_context
	.type	restore_user_context, @function
restore_user_context:
.LFB428:
	.file 51 "/home/axjllt/Desktop/ori_refos/kernel/src/arch/x86/32/c_traps.c"
	.loc 51 111 0
	.cfi_startproc
	subl	$12, %esp
	.cfi_def_cfa_offset 16
	.loc 51 118 0
	movl	x86KSPendingInterrupt, %eax
	cmpl	$-1, %eax
	je	.L675
.LBB7175:
.LBB7176:
.LBB7177:
	.loc 49 51 0
	cmpl	$-1, x86KScurInterrupt
	jne	.L688
.LVL707:
	.loc 49 54 0
	movl	$-1, x86KSPendingInterrupt
.LBE7177:
.LBE7176:
	.loc 51 122 0
	xorl	%edx, %edx
#APP
# 122 "/home/axjllt/Desktop/ori_refos/kernel/src/arch/x86/32/c_traps.c" 1
	and $-4096, %esp
add $4096, %esp
push %edx 
push %eax
call c_handle_interrupt
# 0 "" 2
.LVL708:
#NO_APP
.L675:
.LBE7175:
	.loc 51 143 0
	movl	ksCurThread, %edx
.LVL709:
.LBB7180:
.LBB7181:
	.file 52 "/home/axjllt/Desktop/ori_refos/kernel/include/arch/x86/arch/32/mode/stack.h"
	.loc 52 45 0
	leal	588(%edx), %eax
.LVL710:
	movl	%eax, x86KStss+4
.LVL711:
.LBE7181:
.LBE7180:
.LBB7182:
.LBB7183:
	.file 53 "/home/axjllt/Desktop/ori_refos/kernel/include/machine/fpu.h"
	.loc 53 43 0
	movl	ksActiveFPUState, %eax
	testl	%eax, %eax
	jne	.L689
.L677:
.LVL712:
.LBE7183:
.LBE7182:
	.loc 51 151 0
	movl	560(%edx), %eax
	call	x86_write_gs_base.isra.53
.LVL713:
	.loc 51 153 0
	movl	ksCurThread, %edx
	movl	640(%edx), %eax
.LVL714:
.LBB7206:
.LBB7207:
	.loc 10 263 0
	cmpl	x86KSCurrentFSBase, %eax
	je	.L681
	call	x86_write_fs_base.isra.37.part.38
.LVL715:
	movl	ksCurThread, %edx
.L681:
.LBE7207:
.LBE7206:
	.loc 51 157 0
	cmpl	$-1, 564(%edx)
	jne	.L682
	.loc 51 158 0
	andl	$-513, 576(%edx)
	.loc 51 159 0
	addl	$512, %edx
#APP
# 159 "/home/axjllt/Desktop/ori_refos/kernel/src/arch/x86/32/c_traps.c" 1
	movl %edx, %esp
popl %eax
popl %ebx
addl $8, %esp
popl %esi
popl %edi
popl %ebp
cmpl $0x23, (%esp)
je 1f
popl %ds
jmp 2f
1: addl $4, %esp
2:
cmpl $0x23, (%esp)
je 1f
popl %es
jmp 2f
1: addl $4, %esp
2:
popl %fs
popl %gs
addl $12, %esp
popl %edx
addl $4,  %esp
movl 4(%esp), %ecx
popfl
orl $512, -4(%esp)
sti
sysexit

# 0 "" 2
.LVL716:
#NO_APP
.L689:
.LBB7208:
.LBB7204:
	.loc 53 47 0
	cmpl	$64, ksFPURestoresSinceSwitch
	ja	.L690
	.loc 53 51 0
	cmpl	%edx, %eax
	jne	.L679
.LBB7184:
.LBB7185:
	.loc 24 108 0
#APP
# 108 "/home/axjllt/Desktop/ori_refos/kernel/include/arch/x86/arch/machine/fpu.h" 1
	clts
# 0 "" 2
#NO_APP
.L680:
.LBE7185:
.LBE7184:
	.loc 53 58 0
	addl	$1, ksFPURestoresSinceSwitch
	jmp	.L677
.LVL717:
.L682:
.LBE7204:
.LBE7208:
	.loc 51 217 0
	addl	$512, %edx
#APP
# 217 "/home/axjllt/Desktop/ori_refos/kernel/src/arch/x86/32/c_traps.c" 1
	movl %edx, %esp
popl %eax
popl %ebx
popl %ecx
popl %edx
popl %esi
popl %edi
popl %ebp
popl %ds
popl %es
popl %fs
popl %gs
addl $12, %esp
iret

# 0 "" 2
.LVL718:
#NO_APP
.L690:
.LBB7209:
.LBB7205:
.LBB7186:
.LBB7187:
.LBB7188:
.LBB7189:
	.loc 24 108 0
#APP
# 108 "/home/axjllt/Desktop/ori_refos/kernel/include/arch/x86/arch/machine/fpu.h" 1
	clts
# 0 "" 2
.LVL719:
#NO_APP
.LBE7189:
.LBE7188:
.LBB7190:
.LBB7191:
	.loc 24 70 0
#APP
# 70 "/home/axjllt/Desktop/ori_refos/kernel/include/arch/x86/arch/machine/fpu.h" 1
	fxsave (%eax)
# 0 "" 2
#NO_APP
.LBE7191:
.LBE7190:
.LBB7192:
.LBB7193:
.LBB7194:
.LBB7195:
	.loc 7 29 0
#APP
# 29 "/home/axjllt/Desktop/ori_refos/kernel/include/arch/x86/arch/32/mode/machine/cpu_registers.h" 1
	movl %cr0, %eax
# 0 "" 2
.LVL720:
#NO_APP
.LBE7195:
.LBE7194:
.LBB7196:
.LBB7197:
	.loc 7 35 0
	orl	$8, %eax
.LVL721:
#APP
# 35 "/home/axjllt/Desktop/ori_refos/kernel/include/arch/x86/arch/32/mode/machine/cpu_registers.h" 1
	movl %eax, %cr0
# 0 "" 2
.LVL722:
#NO_APP
.LBE7197:
.LBE7196:
.LBE7193:
.LBE7192:
	.loc 6 33 0
	movl	$0, ksActiveFPUState
.LVL723:
.LBE7187:
.LBE7186:
	.loc 53 49 0
	movl	$0, ksFPURestoresSinceSwitch
	jmp	.L677
.L679:
.LBB7198:
.LBB7199:
.LBB7200:
.LBB7201:
	.loc 7 29 0
#APP
# 29 "/home/axjllt/Desktop/ori_refos/kernel/include/arch/x86/arch/32/mode/machine/cpu_registers.h" 1
	movl %cr0, %eax
# 0 "" 2
.LVL724:
#NO_APP
.LBE7201:
.LBE7200:
.LBB7202:
.LBB7203:
	.loc 7 35 0
	orl	$8, %eax
.LVL725:
#APP
# 35 "/home/axjllt/Desktop/ori_refos/kernel/include/arch/x86/arch/32/mode/machine/cpu_registers.h" 1
	movl %eax, %cr0
# 0 "" 2
.LVL726:
#NO_APP
	jmp	.L680
.LVL727:
.L688:
.LBE7203:
.LBE7202:
.LBE7199:
.LBE7198:
.LBE7205:
.LBE7209:
.LBB7210:
.LBB7179:
.LBB7178:
	call	servicePendingIRQ.part.88
.LVL728:
.LBE7178:
.LBE7179:
.LBE7210:
	.cfi_endproc
.LFE428:
	.size	restore_user_context, .-restore_user_context
	.section	.text.unlikely
.LCOLDE196:
	.text
.LHOTE196:
	.section	.rodata.str1.4
	.align 4
.LC197:
	.string	"(base_high & ~0xffu) == ((0 && (base_high & (1u << 31))) ? 0x0 : 0)"
	.section	.text.unlikely
.LCOLDB198:
.LHOTB198:
	.type	gdt_entry_gdt_code_new.part.106, @function
gdt_entry_gdt_code_new.part.106:
.LFB1001:
	.loc 11 1533 0
	.cfi_startproc
.LVL729:
	subl	$12, %esp
	.cfi_def_cfa_offset 16
	.loc 11 1537 0
	pushl	$__FUNCTION__.1973
	.cfi_def_cfa_offset 20
	pushl	$1537
	.cfi_def_cfa_offset 24
	pushl	$.LC154
	.cfi_def_cfa_offset 28
	pushl	$.LC197
	.cfi_def_cfa_offset 32
	call	_assert_fail
.LVL730:
	.cfi_endproc
.LFE1001:
	.size	gdt_entry_gdt_code_new.part.106, .-gdt_entry_gdt_code_new.part.106
.LCOLDE198:
.LHOTE198:
.LCOLDB199:
.LHOTB199:
	.type	gdt_entry_gdt_data_new.part.107, @function
gdt_entry_gdt_data_new.part.107:
.LFB1002:
	.loc 11 1456 0
	.cfi_startproc
.LVL731:
	subl	$12, %esp
	.cfi_def_cfa_offset 16
	.loc 11 1460 0
	pushl	$__FUNCTION__.1942
	.cfi_def_cfa_offset 20
	pushl	$1460
	.cfi_def_cfa_offset 24
	pushl	$.LC154
	.cfi_def_cfa_offset 28
	pushl	$.LC197
	.cfi_def_cfa_offset 32
	call	_assert_fail
.LVL732:
	.cfi_endproc
.LFE1002:
	.size	gdt_entry_gdt_data_new.part.107, .-gdt_entry_gdt_data_new.part.107
.LCOLDE199:
.LHOTE199:
	.section	.rodata.str1.4
	.align 4
.LC200:
	.string	"(page_base_address & ~0xffe00000u) == ((0 && (page_base_address & (1u << 31))) ? 0x0 : 0)"
	.section	.text.unlikely
.LCOLDB201:
.LHOTB201:
	.type	pde_pde_large_new.part.108, @function
pde_pde_large_new.part.108:
.LFB1003:
	.loc 11 2040 0
	.cfi_startproc
.LVL733:
	subl	$12, %esp
	.cfi_def_cfa_offset 16
	.loc 11 2044 0
	pushl	$__FUNCTION__.2177
	.cfi_def_cfa_offset 20
	pushl	$2044
	.cfi_def_cfa_offset 24
	pushl	$.LC154
	.cfi_def_cfa_offset 28
	pushl	$.LC200
	.cfi_def_cfa_offset 32
	call	_assert_fail
.LVL734:
	.cfi_endproc
.LFE1003:
	.size	pde_pde_large_new.part.108, .-pde_pde_large_new.part.108
.LCOLDE201:
.LHOTE201:
	.section	.rodata.str1.4
	.align 4
.LC202:
	.string	"(pt_base_address & ~0xfffff000u) == ((0 && (pt_base_address & (1u << 31))) ? 0x0 : 0)"
	.section	.text.unlikely
.LCOLDB203:
.LHOTB203:
	.type	pde_pde_pt_new.part.111, @function
pde_pde_pt_new.part.111:
.LFB1006:
	.loc 11 1941 0
	.cfi_startproc
.LVL735:
	subl	$12, %esp
	.cfi_def_cfa_offset 16
	.loc 11 1945 0
	pushl	$__FUNCTION__.2137
	.cfi_def_cfa_offset 20
	pushl	$1945
	.cfi_def_cfa_offset 24
	pushl	$.LC154
	.cfi_def_cfa_offset 28
	pushl	$.LC202
	.cfi_def_cfa_offset 32
	call	_assert_fail
.LVL736:
	.cfi_endproc
.LFE1006:
	.size	pde_pde_pt_new.part.111, .-pde_pde_pt_new.part.111
.LCOLDE203:
.LHOTE203:
	.section	.rodata.str1.4
	.align 4
.LC204:
	.string	"(page_base_address & ~0xfffff000u) == ((0 && (page_base_address & (1u << 31))) ? 0x0 : 0)"
	.section	.text.unlikely
.LCOLDB205:
.LHOTB205:
	.type	pte_new.part.112, @function
pte_new.part.112:
.LFB1007:
	.loc 11 41 0
	.cfi_startproc
.LVL737:
	subl	$12, %esp
	.cfi_def_cfa_offset 16
	.loc 11 45 0
	pushl	$__FUNCTION__.1316
	.cfi_def_cfa_offset 20
	pushl	$45
	.cfi_def_cfa_offset 24
	pushl	$.LC154
	.cfi_def_cfa_offset 28
	pushl	$.LC204
	.cfi_def_cfa_offset 32
	call	_assert_fail
.LVL738:
	.cfi_endproc
.LFE1007:
	.size	pte_new.part.112, .-pte_new.part.112
.LCOLDE205:
.LHOTE205:
	.section	.rodata.str1.4
	.align 4
.LC206:
	.string	"(capPDIsMapped & ~0x1u) == ((0 && (capPDIsMapped & (1u << 31))) ? 0x0 : 0)"
	.section	.text.unlikely
.LCOLDB207:
.LHOTB207:
	.type	cap_page_directory_cap_new.part.113, @function
cap_page_directory_cap_new.part.113:
.LFB1008:
	.loc 11 3135 0
	.cfi_startproc
.LVL739:
	subl	$12, %esp
	.cfi_def_cfa_offset 16
	.loc 11 3139 0
	pushl	$__FUNCTION__.2596
	.cfi_def_cfa_offset 20
	pushl	$3139
	.cfi_def_cfa_offset 24
	pushl	$.LC154
	.cfi_def_cfa_offset 28
	pushl	$.LC206
	.cfi_def_cfa_offset 32
	call	_assert_fail
.LVL740:
	.cfi_endproc
.LFE1008:
	.size	cap_page_directory_cap_new.part.113, .-cap_page_directory_cap_new.part.113
.LCOLDE207:
.LHOTE207:
	.section	.rodata.str1.4
	.align 4
.LC208:
	.string	"((cap.words[0] >> 0) & 0xf) == cap_untyped_cap"
	.section	.text.unlikely
.LCOLDB209:
.LHOTB209:
	.type	cap_untyped_cap_get_capPtr.isra.115.part.116, @function
cap_untyped_cap_get_capPtr.isra.115.part.116:
.LFB1011:
	.loc 11 2318 0
	.cfi_startproc
	subl	$12, %esp
	.cfi_def_cfa_offset 16
	.loc 11 2320 0
	pushl	$__FUNCTION__.2286
	.cfi_def_cfa_offset 20
	pushl	$2321
	.cfi_def_cfa_offset 24
	pushl	$.LC154
	.cfi_def_cfa_offset 28
	pushl	$.LC208
	.cfi_def_cfa_offset 32
	call	_assert_fail
.LVL741:
	.cfi_endproc
.LFE1011:
	.size	cap_untyped_cap_get_capPtr.isra.115.part.116, .-cap_untyped_cap_get_capPtr.isra.115.part.116
.LCOLDE209:
.LHOTE209:
.LCOLDB210:
	.text
.LHOTB210:
	.p2align 4,,15
	.type	cap_endpoint_cap_get_capEPPtr.part.117, @function
cap_endpoint_cap_get_capEPPtr.part.117:
.LFB1012:
	.loc 11 2356 0
	.cfi_startproc
	subl	$12, %esp
	.cfi_def_cfa_offset 16
	.loc 11 2358 0
	pushl	$__FUNCTION__.2300
	.cfi_def_cfa_offset 20
	pushl	$2359
	.cfi_def_cfa_offset 24
	pushl	$.LC154
	.cfi_def_cfa_offset 28
	pushl	$.LC182
	.cfi_def_cfa_offset 32
	call	_assert_fail
.LVL742:
	.cfi_endproc
.LFE1012:
	.size	cap_endpoint_cap_get_capEPPtr.part.117, .-cap_endpoint_cap_get_capEPPtr.part.117
	.section	.text.unlikely
.LCOLDE210:
	.text
.LHOTE210:
	.section	.rodata.str1.4
	.align 4
.LC211:
	.string	"((cap.words[0] >> 0) & 0xf) == cap_cnode_cap"
	.section	.text.unlikely
.LCOLDB212:
	.text
.LHOTB212:
	.p2align 4,,15
	.type	cap_cnode_cap_get_capCNodePtr.isra.118.part.119, @function
cap_cnode_cap_get_capCNodePtr.isra.118.part.119:
.LFB1014:
	.loc 11 2736 0
	.cfi_startproc
	subl	$12, %esp
	.cfi_def_cfa_offset 16
	.loc 11 2738 0
	pushl	$__FUNCTION__.2443
	.cfi_def_cfa_offset 20
	pushl	$2739
	.cfi_def_cfa_offset 24
	pushl	$.LC154
	.cfi_def_cfa_offset 28
	pushl	$.LC211
	.cfi_def_cfa_offset 32
	call	_assert_fail
.LVL743:
	.cfi_endproc
.LFE1014:
	.size	cap_cnode_cap_get_capCNodePtr.isra.118.part.119, .-cap_cnode_cap_get_capCNodePtr.isra.118.part.119
	.section	.text.unlikely
.LCOLDE212:
	.text
.LHOTE212:
	.section	.rodata.str1.4
	.align 4
.LC213:
	.string	"((cap.words[0] >> 0) & 0xff) == cap_zombie_cap"
	.section	.text.unlikely
.LCOLDB214:
.LHOTB214:
	.type	cap_zombie_cap_get_capZombieType.isra.120.part.121, @function
cap_zombie_cap_get_capZombieType.isra.120.part.121:
.LFB1016:
	.loc 11 3432 0
	.cfi_startproc
	subl	$12, %esp
	.cfi_def_cfa_offset 16
	.loc 11 3434 0
	pushl	$__FUNCTION__.2699
	.cfi_def_cfa_offset 20
	pushl	$3435
	.cfi_def_cfa_offset 24
	pushl	$.LC154
	.cfi_def_cfa_offset 28
	pushl	$.LC213
	.cfi_def_cfa_offset 32
	call	_assert_fail
.LVL744:
	.cfi_endproc
.LFE1016:
	.size	cap_zombie_cap_get_capZombieType.isra.120.part.121, .-cap_zombie_cap_get_capZombieType.isra.120.part.121
.LCOLDE214:
.LHOTE214:
.LCOLDB215:
.LHOTB215:
	.type	cap_zombie_cap_get_capZombieID.part.123, @function
cap_zombie_cap_get_capZombieID.part.123:
.LFB1018:
	.loc 11 3406 0
	.cfi_startproc
	subl	$12, %esp
	.cfi_def_cfa_offset 16
	.loc 11 3408 0
	pushl	$__FUNCTION__.2689
	.cfi_def_cfa_offset 20
	pushl	$3409
	.cfi_def_cfa_offset 24
	pushl	$.LC154
	.cfi_def_cfa_offset 28
	pushl	$.LC213
	.cfi_def_cfa_offset 32
	call	_assert_fail
.LVL745:
	.cfi_endproc
.LFE1018:
	.size	cap_zombie_cap_get_capZombieID.part.123, .-cap_zombie_cap_get_capZombieID.part.123
.LCOLDE215:
.LHOTE215:
	.section	.rodata.str1.4
	.align 4
.LC216:
	.string	"((cap.words[0] >> 0) & 0xf) == cap_frame_cap"
	.section	.text.unlikely
.LCOLDB217:
.LHOTB217:
	.type	cap_frame_cap_get_capFBasePtr.isra.125.part.126, @function
cap_frame_cap_get_capFBasePtr.isra.125.part.126:
.LFB1021:
	.loc 11 2994 0
	.cfi_startproc
	subl	$12, %esp
	.cfi_def_cfa_offset 16
	.loc 11 2996 0
	pushl	$__FUNCTION__.2540
	.cfi_def_cfa_offset 20
	pushl	$2997
	.cfi_def_cfa_offset 24
	pushl	$.LC154
	.cfi_def_cfa_offset 28
	pushl	$.LC216
	.cfi_def_cfa_offset 32
	call	_assert_fail
.LVL746:
	.cfi_endproc
.LFE1021:
	.size	cap_frame_cap_get_capFBasePtr.isra.125.part.126, .-cap_frame_cap_get_capFBasePtr.isra.125.part.126
.LCOLDE217:
.LHOTE217:
	.section	.rodata.str1.4
	.align 4
.LC218:
	.string	"((cap.words[0] >> 0) & 0xf) == cap_page_table_cap"
	.section	.text.unlikely
.LCOLDB219:
.LHOTB219:
	.type	cap_page_table_cap_get_capPTBasePtr.isra.127.part.128, @function
cap_page_table_cap_get_capPTBasePtr.isra.127.part.128:
.LFB1023:
	.loc 11 3121 0
	.cfi_startproc
	subl	$12, %esp
	.cfi_def_cfa_offset 16
	.loc 11 3123 0
	pushl	$__FUNCTION__.2588
	.cfi_def_cfa_offset 20
	pushl	$3124
	.cfi_def_cfa_offset 24
	pushl	$.LC154
	.cfi_def_cfa_offset 28
	pushl	$.LC218
	.cfi_def_cfa_offset 32
	call	_assert_fail
.LVL747:
	.cfi_endproc
.LFE1023:
	.size	cap_page_table_cap_get_capPTBasePtr.isra.127.part.128, .-cap_page_table_cap_get_capPTBasePtr.isra.127.part.128
.LCOLDE219:
.LHOTE219:
	.section	.rodata.str1.4
	.align 4
.LC220:
	.string	"((cap.words[0] >> 0) & 0xf) == cap_page_directory_cap"
	.section	.text.unlikely
.LCOLDB221:
	.text
.LHOTB221:
	.p2align 4,,15
	.type	cap_page_directory_cap_get_capPDBasePtr.isra.129.part.130, @function
cap_page_directory_cap_get_capPDBasePtr.isra.129.part.130:
.LFB1025:
	.loc 11 3225 0
	.cfi_startproc
	subl	$12, %esp
	.cfi_def_cfa_offset 16
	.loc 11 3227 0
	pushl	$__FUNCTION__.2626
	.cfi_def_cfa_offset 20
	pushl	$3228
	.cfi_def_cfa_offset 24
	pushl	$.LC154
	.cfi_def_cfa_offset 28
	pushl	$.LC220
	.cfi_def_cfa_offset 32
	call	_assert_fail
.LVL748:
	.cfi_endproc
.LFE1025:
	.size	cap_page_directory_cap_get_capPDBasePtr.isra.129.part.130, .-cap_page_directory_cap_get_capPDBasePtr.isra.129.part.130
	.section	.text.unlikely
.LCOLDE221:
	.text
.LHOTE221:
	.section	.rodata.str1.4
	.align 4
.LC222:
	.string	"((cap.words[0] >> 0) & 0xff) == cap_io_page_table_cap"
	.section	.text.unlikely
.LCOLDB223:
.LHOTB223:
	.type	cap_io_page_table_cap_get_capIOPTBasePtr.isra.132.part.133, @function
cap_io_page_table_cap_get_capIOPTBasePtr.isra.132.part.133:
.LFB1028:
	.loc 11 3588 0
	.cfi_startproc
	subl	$12, %esp
	.cfi_def_cfa_offset 16
	.loc 11 3590 0
	pushl	$__FUNCTION__.2758
	.cfi_def_cfa_offset 20
	pushl	$3591
	.cfi_def_cfa_offset 24
	pushl	$.LC154
	.cfi_def_cfa_offset 28
	pushl	$.LC222
	.cfi_def_cfa_offset 32
	call	_assert_fail
.LVL749:
	.cfi_endproc
.LFE1028:
	.size	cap_io_page_table_cap_get_capIOPTBasePtr.isra.132.part.133, .-cap_io_page_table_cap_get_capIOPTBasePtr.isra.132.part.133
.LCOLDE223:
.LHOTE223:
	.section	.rodata.str1.4
	.align 4
.LC224:
	.string	"((cap.words[0] >> 0) & 0xf) == cap_asid_pool_cap"
	.section	.text.unlikely
.LCOLDB225:
.LHOTB225:
	.type	cap_asid_pool_cap_get_capASIDPool.isra.134.part.135, @function
cap_asid_pool_cap_get_capASIDPool.isra.134.part.135:
.LFB1030:
	.loc 11 3285 0
	.cfi_startproc
	subl	$12, %esp
	.cfi_def_cfa_offset 16
	.loc 11 3287 0
	pushl	$__FUNCTION__.2647
	.cfi_def_cfa_offset 20
	pushl	$3288
	.cfi_def_cfa_offset 24
	pushl	$.LC154
	.cfi_def_cfa_offset 28
	pushl	$.LC224
	.cfi_def_cfa_offset 32
	call	_assert_fail
.LVL750:
	.cfi_endproc
.LFE1030:
	.size	cap_asid_pool_cap_get_capASIDPool.isra.134.part.135, .-cap_asid_pool_cap_get_capASIDPool.isra.134.part.135
.LCOLDE225:
.LHOTE225:
	.section	.rodata.str1.1
.LC226:
	.string	"Invalid mode cap type"
	.section	.text.unlikely
.LCOLDB227:
	.text
.LHOTB227:
	.p2align 4,,15
	.type	cap_get_capPtr, @function
cap_get_capPtr:
.LFB299:
	.file 54 "/home/axjllt/Desktop/ori_refos/kernel/include/object/structures.h"
	.loc 54 382 0
	.cfi_startproc
.LVL751:
.LBB7259:
.LBB7260:
	.loc 11 2202 0
	movl	%eax, %ecx
.LBE7260:
.LBE7259:
	.loc 54 382 0
	subl	$12, %esp
	.cfi_def_cfa_offset 16
.LBB7263:
.LBB7261:
	.loc 11 2202 0
	andl	$14, %ecx
	cmpl	$14, %ecx
	je	.L724
	.loc 11 2203 0
	movl	%eax, %ecx
	andl	$15, %ecx
.LVL752:
.LBE7261:
.LBE7263:
	.loc 54 387 0
	cmpl	$14, %ecx
	ja	.L725
	jmp	*.L727(,%ecx,4)
	.section	.rodata
	.align 4
	.align 4
.L727:
	.long	.L725
	.long	.L725
	.long	.L769
	.long	.L725
	.long	.L728
	.long	.L725
	.long	.L769
	.long	.L725
	.long	.L760
	.long	.L725
	.long	.L731
	.long	.L725
	.long	.L732
	.long	.L725
	.long	.L760
	.text
	.p2align 4,,10
	.p2align 3
.L728:
.LVL753:
	.loc 54 392 0
	movl	%edx, %eax
.LVL754:
.L769:
	andl	$-16, %eax
.LVL755:
.L766:
	.loc 54 421 0
	addl	$12, %esp
	.cfi_remember_state
	.cfi_def_cfa_offset 4
	ret
.LVL756:
	.p2align 4,,10
	.p2align 3
.L724:
	.cfi_restore_state
.LBB7264:
.LBB7262:
	.loc 11 2204 0
	movzbl	%al, %ecx
.LVL757:
.LBE7262:
.LBE7264:
	.loc 54 387 0
	cmpl	$62, %ecx
	ja	.L725
	jmp	*.L734(,%ecx,4)
	.section	.rodata
	.align 4
	.align 4
.L734:
	.long	.L725
	.long	.L725
	.long	.L733
	.long	.L725
	.long	.L735
	.long	.L725
	.long	.L736
	.long	.L725
	.long	.L760
	.long	.L725
	.long	.L737
	.long	.L725
	.long	.L738
	.long	.L725
	.long	.L760
	.long	.L725
	.long	.L725
	.long	.L725
	.long	.L725
	.long	.L725
	.long	.L725
	.long	.L725
	.long	.L725
	.long	.L725
	.long	.L725
	.long	.L725
	.long	.L725
	.long	.L725
	.long	.L725
	.long	.L725
	.long	.L760
	.long	.L725
	.long	.L725
	.long	.L725
	.long	.L725
	.long	.L725
	.long	.L725
	.long	.L725
	.long	.L725
	.long	.L725
	.long	.L725
	.long	.L725
	.long	.L725
	.long	.L725
	.long	.L725
	.long	.L725
	.long	.L739
	.long	.L725
	.long	.L725
	.long	.L725
	.long	.L725
	.long	.L725
	.long	.L725
	.long	.L725
	.long	.L725
	.long	.L725
	.long	.L725
	.long	.L725
	.long	.L725
	.long	.L725
	.long	.L725
	.long	.L725
	.long	.L760
	.text
	.p2align 4,,10
	.p2align 3
.L760:
.LBB7265:
.LBB7266:
	.file 55 "/home/axjllt/Desktop/ori_refos/kernel/include/arch/x86/arch/object/structures.h"
	.loc 55 280 0
	xorl	%eax, %eax
.LVL758:
.LBE7266:
.LBE7265:
	.loc 54 421 0
	addl	$12, %esp
	.cfi_remember_state
	.cfi_def_cfa_offset 4
	ret
.LVL759:
	.p2align 4,,10
	.p2align 3
.L732:
	.cfi_restore_state
	.loc 54 401 0
	andl	$-1024, %eax
.LVL760:
	.loc 54 421 0
	addl	$12, %esp
	.cfi_remember_state
	.cfi_def_cfa_offset 4
	ret
.LVL761:
	.p2align 4,,10
	.p2align 3
.L731:
	.cfi_restore_state
	.loc 54 398 0
	andl	$-32, %eax
.LVL762:
	.loc 54 421 0
	addl	$12, %esp
	.cfi_remember_state
	.cfi_def_cfa_offset 4
	ret
.LVL763:
	.p2align 4,,10
	.p2align 3
.L725:
	.cfi_restore_state
.LBB7285:
.LBB7283:
	.loc 55 268 0
	cmpl	$31, %ecx
	ja	.L744
	jmp	*.L746(,%ecx,4)
	.section	.rodata
	.align 4
	.align 4
.L746:
	.long	.L744
	.long	.L745
	.long	.L744
	.long	.L747
	.long	.L744
	.long	.L748
	.long	.L744
	.long	.L744
	.long	.L744
	.long	.L760
	.long	.L744
	.long	.L749
	.long	.L744
	.long	.L760
	.long	.L744
	.long	.L750
	.long	.L744
	.long	.L744
	.long	.L744
	.long	.L744
	.long	.L744
	.long	.L744
	.long	.L744
	.long	.L744
	.long	.L744
	.long	.L744
	.long	.L744
	.long	.L744
	.long	.L744
	.long	.L744
	.long	.L744
	.long	.L760
	.text
	.p2align 4,,10
	.p2align 3
.L739:
.LVL764:
.LBE7283:
.LBE7285:
.LBB7286:
.LBB7287:
.LBB7288:
.LBB7289:
.LBB7290:
.LBB7291:
	.loc 11 3437 0
	andl	$16128, %eax
.LVL765:
	movl	%eax, %ecx
.LBE7291:
.LBE7290:
	.loc 54 103 0
	movl	$-32, %eax
.LBB7293:
.LBB7292:
	.loc 11 3437 0
	shrl	$8, %ecx
.LBE7292:
.LBE7293:
	.loc 54 103 0
	cmpl	$32, %ecx
	je	.L756
	andl	$31, %ecx
	movl	$-1, %eax
	addl	$1, %ecx
	sall	%cl, %eax
.L756:
.LVL766:
.LBE7289:
.LBE7288:
.LBE7287:
.LBE7286:
	.loc 54 404 0
	andl	%edx, %eax
	.loc 54 421 0
	addl	$12, %esp
	.cfi_remember_state
	.cfi_def_cfa_offset 4
	ret
.LVL767:
	.p2align 4,,10
	.p2align 3
.L738:
	.cfi_restore_state
.LBB7294:
.LBB7295:
	.loc 11 2768 0
	movl	%eax, %edx
	andl	$15, %edx
	cmpl	$12, %edx
	je	.L732
	call	cap_thread_cap_get_capTCBPtr.isra.89.part.90
.LVL768:
	.p2align 4,,10
	.p2align 3
.L733:
.LBE7295:
.LBE7294:
.LBB7296:
.LBB7297:
	.loc 11 2320 0
	movl	%eax, %edx
	andl	$15, %edx
	cmpl	$2, %edx
	je	.L769
	call	cap_untyped_cap_get_capPtr.isra.115.part.116
.LVL769:
	.p2align 4,,10
	.p2align 3
.L735:
.LBE7297:
.LBE7296:
.LBB7298:
.LBB7299:
	.loc 11 2358 0
	andl	$15, %eax
.LVL770:
	cmpl	$4, %eax
	je	.L728
	call	cap_endpoint_cap_get_capEPPtr.part.117
.LVL771:
	.p2align 4,,10
	.p2align 3
.L736:
.LBE7299:
.LBE7298:
.LBB7300:
.LBB7301:
	.loc 11 2576 0
	movl	%eax, %edx
	andl	$15, %edx
	cmpl	$6, %edx
	je	.L769
	call	cap_notification_cap_get_capNtfnPtr.isra.97.part.98
.LVL772:
	.p2align 4,,10
	.p2align 3
.L737:
.LBE7301:
.LBE7300:
.LBB7302:
.LBB7303:
	.loc 11 2738 0
	movl	%eax, %edx
	andl	$15, %edx
	cmpl	$10, %edx
	je	.L731
	call	cap_cnode_cap_get_capCNodePtr.isra.118.part.119
.LVL773:
	.p2align 4,,10
	.p2align 3
.L749:
.LBE7303:
.LBE7302:
.LBB7304:
.LBB7284:
.LBB7267:
.LBB7268:
	.loc 11 3287 0
	movl	%eax, %edx
	andl	$15, %edx
	cmpl	$11, %edx
	jne	.L774
.LVL774:
.L755:
.LBE7268:
.LBE7267:
	.loc 55 294 0
	andl	$16777200, %eax
.LVL775:
	sall	$8, %eax
	jmp	.L766
.LVL776:
	.p2align 4,,10
	.p2align 3
.L750:
.LBB7270:
.LBB7271:
	.loc 11 3590 0
	cmpb	$15, %al
	jne	.L775
.LVL777:
.LBE7271:
.LBE7270:
	.loc 55 287 0
	andl	$268435200, %eax
.LVL778:
	sall	$4, %eax
	jmp	.L766
.LVL779:
	.p2align 4,,10
	.p2align 3
.L748:
.LBB7273:
.LBB7274:
	.loc 11 3227 0
	movl	%eax, %edx
	andl	$15, %edx
	cmpl	$5, %edx
	je	.L755
	call	cap_page_directory_cap_get_capPDBasePtr.isra.129.part.130
.LVL780:
	.p2align 4,,10
	.p2align 3
.L745:
.LBE7274:
.LBE7273:
.LBB7275:
.LBB7276:
	.loc 11 2996 0
	movl	%eax, %edx
	andl	$15, %edx
	cmpl	$1, %edx
	je	.L755
	call	cap_frame_cap_get_capFBasePtr.isra.125.part.126
.LVL781:
	.p2align 4,,10
	.p2align 3
.L747:
.LBE7276:
.LBE7275:
.LBB7277:
.LBB7278:
	.loc 11 3123 0
	movl	%eax, %edx
	andl	$15, %edx
	cmpl	$3, %edx
	je	.L755
	call	cap_page_table_cap_get_capPTBasePtr.isra.127.part.128
.LVL782:
	.p2align 4,,10
	.p2align 3
.L744:
.LBE7278:
.LBE7277:
.LBB7279:
.LBB7280:
	.loc 46 134 0
	pushl	$__func__.3040
	.cfi_remember_state
	.cfi_def_cfa_offset 20
	pushl	$134
	.cfi_def_cfa_offset 24
	pushl	$.LC145
	.cfi_def_cfa_offset 28
	pushl	$.LC226
	.cfi_def_cfa_offset 32
	call	_fail
.LVL783:
.L775:
	.cfi_restore_state
.LBE7280:
.LBE7279:
.LBB7281:
.LBB7272:
	call	cap_io_page_table_cap_get_capIOPTBasePtr.isra.132.part.133
.LVL784:
.L774:
.LBE7272:
.LBE7281:
.LBB7282:
.LBB7269:
	call	cap_asid_pool_cap_get_capASIDPool.isra.134.part.135
.LVL785:
.LBE7269:
.LBE7282:
.LBE7284:
.LBE7304:
	.cfi_endproc
.LFE299:
	.size	cap_get_capPtr, .-cap_get_capPtr
	.section	.text.unlikely
.LCOLDE227:
	.text
.LHOTE227:
	.section	.rodata.str1.4
	.align 4
.LC228:
	.string	"(capPTIsMapped & ~0x1u) == ((0 && (capPTIsMapped & (1u << 31))) ? 0x0 : 0)"
	.section	.text.unlikely
.LCOLDB229:
.LHOTB229:
	.type	cap_page_table_cap_new.part.137, @function
cap_page_table_cap_new.part.137:
.LFB1032:
	.loc 11 3008 0
	.cfi_startproc
.LVL786:
	subl	$12, %esp
	.cfi_def_cfa_offset 16
	.loc 11 3012 0
	pushl	$__FUNCTION__.2548
	.cfi_def_cfa_offset 20
	pushl	$3012
	.cfi_def_cfa_offset 24
	pushl	$.LC154
	.cfi_def_cfa_offset 28
	pushl	$.LC228
	.cfi_def_cfa_offset 32
	call	_assert_fail
.LVL787:
	.cfi_endproc
.LFE1032:
	.size	cap_page_table_cap_new.part.137, .-cap_page_table_cap_new.part.137
.LCOLDE229:
.LHOTE229:
	.section	.rodata.str1.4
	.align 4
.LC230:
	.string	"(capFSize & ~0x1u) == ((0 && (capFSize & (1u << 31))) ? 0x0 : 0)"
	.section	.text.unlikely
.LCOLDB231:
.LHOTB231:
	.type	cap_frame_cap_new.part.138, @function
cap_frame_cap_new.part.138:
.LFB1033:
	.loc 11 2780 0
	.cfi_startproc
.LVL788:
	subl	$12, %esp
	.cfi_def_cfa_offset 16
	.loc 11 2784 0
	pushl	$__FUNCTION__.2465
	.cfi_def_cfa_offset 20
	pushl	$2784
	.cfi_def_cfa_offset 24
	pushl	$.LC154
	.cfi_def_cfa_offset 28
	pushl	$.LC230
	.cfi_def_cfa_offset 32
	call	_assert_fail
.LVL789:
	.cfi_endproc
.LFE1033:
	.size	cap_frame_cap_new.part.138, .-cap_frame_cap_new.part.138
.LCOLDE231:
.LHOTE231:
.LCOLDB232:
.LHOTB232:
	.type	cap_page_directory_cap_get_capPDMappedASID.part.139, @function
cap_page_directory_cap_get_capPDMappedASID.part.139:
.LFB1034:
	.loc 11 3184 0
	.cfi_startproc
	subl	$12, %esp
	.cfi_def_cfa_offset 16
	.loc 11 3186 0
	pushl	$__FUNCTION__.2611
	.cfi_def_cfa_offset 20
	pushl	$3187
	.cfi_def_cfa_offset 24
	pushl	$.LC154
	.cfi_def_cfa_offset 28
	pushl	$.LC220
	.cfi_def_cfa_offset 32
	call	_assert_fail
.LVL790:
	.cfi_endproc
.LFE1034:
	.size	cap_page_directory_cap_get_capPDMappedASID.part.139, .-cap_page_directory_cap_get_capPDMappedASID.part.139
.LCOLDE232:
.LHOTE232:
.LCOLDB233:
.LHOTB233:
	.type	cap_page_table_cap_get_capPTMappedAddress.part.141, @function
cap_page_table_cap_get_capPTMappedAddress.part.141:
.LFB1036:
	.loc 11 3095 0
	.cfi_startproc
	subl	$12, %esp
	.cfi_def_cfa_offset 16
	.loc 11 3097 0
	pushl	$__FUNCTION__.2578
	.cfi_def_cfa_offset 20
	pushl	$3098
	.cfi_def_cfa_offset 24
	pushl	$.LC154
	.cfi_def_cfa_offset 28
	pushl	$.LC218
	.cfi_def_cfa_offset 32
	call	_assert_fail
.LVL791:
	.cfi_endproc
.LFE1036:
	.size	cap_page_table_cap_get_capPTMappedAddress.part.141, .-cap_page_table_cap_get_capPTMappedAddress.part.141
.LCOLDE233:
.LHOTE233:
.LCOLDB234:
.LHOTB234:
	.type	cap_page_table_cap_get_capPTIsMapped.part.142, @function
cap_page_table_cap_get_capPTIsMapped.part.142:
.LFB1037:
	.loc 11 3030 0
	.cfi_startproc
	subl	$12, %esp
	.cfi_def_cfa_offset 16
	.loc 11 3032 0
	pushl	$__FUNCTION__.2553
	.cfi_def_cfa_offset 20
	pushl	$3033
	.cfi_def_cfa_offset 24
	pushl	$.LC154
	.cfi_def_cfa_offset 28
	pushl	$.LC218
	.cfi_def_cfa_offset 32
	call	_assert_fail
.LVL792:
	.cfi_endproc
.LFE1037:
	.size	cap_page_table_cap_get_capPTIsMapped.part.142, .-cap_page_table_cap_get_capPTIsMapped.part.142
.LCOLDE234:
.LHOTE234:
.LCOLDB235:
.LHOTB235:
	.type	cap_frame_cap_get_capFMappedAddress.part.143, @function
cap_frame_cap_get_capFMappedAddress.part.143:
.LFB1038:
	.loc 11 2850 0
	.cfi_startproc
	subl	$12, %esp
	.cfi_def_cfa_offset 16
	.loc 11 2852 0
	pushl	$__FUNCTION__.2485
	.cfi_def_cfa_offset 20
	pushl	$2853
	.cfi_def_cfa_offset 24
	pushl	$.LC154
	.cfi_def_cfa_offset 28
	pushl	$.LC216
	.cfi_def_cfa_offset 32
	call	_assert_fail
.LVL793:
	.cfi_endproc
.LFE1038:
	.size	cap_frame_cap_get_capFMappedAddress.part.143, .-cap_frame_cap_get_capFMappedAddress.part.143
.LCOLDE235:
.LHOTE235:
.LCOLDB236:
.LHOTB236:
	.type	cap_frame_cap_get_capFMappedASID.part.145, @function
cap_frame_cap_get_capFMappedASID.part.145:
.LFB1040:
	.loc 46 72 0
	.cfi_startproc
	subl	$12, %esp
	.cfi_def_cfa_offset 16
.LBB7305:
.LBB7306:
	.loc 11 2944 0
	pushl	$__FUNCTION__.2520
	.cfi_def_cfa_offset 20
	pushl	$2945
	.cfi_def_cfa_offset 24
	pushl	$.LC154
	.cfi_def_cfa_offset 28
	pushl	$.LC216
	.cfi_def_cfa_offset 32
	call	_assert_fail
.LVL794:
.LBE7306:
.LBE7305:
	.cfi_endproc
.LFE1040:
	.size	cap_frame_cap_get_capFMappedASID.part.145, .-cap_frame_cap_get_capFMappedASID.part.145
.LCOLDE236:
.LHOTE236:
	.section	.rodata.str1.4
	.align 4
.LC237:
	.string	"((pde_ptr->words[0] >> 7) & 0x1) == pde_pde_pt"
	.section	.text.unlikely
.LCOLDB238:
.LHOTB238:
	.type	pde_pde_pt_ptr_get_pt_base_address.part.148, @function
pde_pde_pt_ptr_get_pt_base_address.part.148:
.LFB1043:
	.loc 11 1984 0
	.cfi_startproc
.LVL795:
	subl	$12, %esp
	.cfi_def_cfa_offset 16
	.loc 11 1986 0
	pushl	$__FUNCTION__.2147
	.cfi_def_cfa_offset 20
	pushl	$1987
	.cfi_def_cfa_offset 24
	pushl	$.LC154
	.cfi_def_cfa_offset 28
	pushl	$.LC237
	.cfi_def_cfa_offset 32
	call	_assert_fail
.LVL796:
	.cfi_endproc
.LFE1043:
	.size	pde_pde_pt_ptr_get_pt_base_address.part.148, .-pde_pde_pt_ptr_get_pt_base_address.part.148
.LCOLDE238:
.LHOTE238:
.LCOLDB239:
	.text
.LHOTB239:
	.p2align 4,,15
	.type	cap_page_directory_cap_get_capPDIsMapped.part.149, @function
cap_page_directory_cap_get_capPDIsMapped.part.149:
.LFB1044:
	.loc 11 3157 0
	.cfi_startproc
	subl	$12, %esp
	.cfi_def_cfa_offset 16
	.loc 11 3159 0
	pushl	$__FUNCTION__.2601
	.cfi_def_cfa_offset 20
	pushl	$3160
	.cfi_def_cfa_offset 24
	pushl	$.LC154
	.cfi_def_cfa_offset 28
	pushl	$.LC220
	.cfi_def_cfa_offset 32
	call	_assert_fail
.LVL797:
	.cfi_endproc
.LFE1044:
	.size	cap_page_directory_cap_get_capPDIsMapped.part.149, .-cap_page_directory_cap_get_capPDIsMapped.part.149
	.section	.text.unlikely
.LCOLDE239:
	.text
.LHOTE239:
	.section	.text.unlikely
.LCOLDB240:
	.text
.LHOTB240:
	.p2align 4,,15
	.globl	isValidNativeRoot
	.type	isValidNativeRoot, @function
isValidNativeRoot:
.LFB475:
	.loc 17 183 0
	.cfi_startproc
.LVL798:
	pushl	%ebx
	.cfi_def_cfa_offset 8
	.cfi_offset 3, -8
	subl	$8, %esp
	.cfi_def_cfa_offset 16
	.loc 17 183 0
	movl	16(%esp), %edx
.LVL799:
	movl	20(%esp), %ebx
.LBB7307:
.LBB7308:
.LBB7309:
	.loc 11 2202 0
	movl	%edx, %eax
	.loc 11 2203 0
	movl	%edx, %ecx
	movzbl	%dl, %edx
.LVL800:
	.loc 11 2202 0
	andl	$14, %eax
.LVL801:
	.loc 11 2203 0
	andl	$15, %ecx
.LVL802:
	cmpl	$14, %eax
.LVL803:
	cmovne	%ecx, %edx
.LVL804:
	xorl	%eax, %eax
.LBE7309:
.LBE7308:
.LBE7307:
	.loc 17 184 0
	cmpl	$5, %edx
	je	.L802
	.loc 17 186 0 discriminator 6
	addl	$8, %esp
	.cfi_remember_state
	.cfi_def_cfa_offset 8
	popl	%ebx
	.cfi_restore 3
	.cfi_def_cfa_offset 4
	ret
	.p2align 4,,10
	.p2align 3
.L802:
	.cfi_restore_state
.LVL805:
.LBB7310:
.LBB7311:
	.loc 11 3159 0 discriminator 1
	cmpl	$5, %ecx
	jne	.L803
	.loc 11 3162 0
	movl	%ebx, %eax
.LBE7311:
.LBE7310:
	.loc 17 186 0
	addl	$8, %esp
	.cfi_remember_state
	.cfi_def_cfa_offset 8
.LBB7314:
.LBB7312:
	.loc 11 3162 0
	andl	$16384, %eax
.LBE7312:
.LBE7314:
	.loc 17 186 0
	popl	%ebx
	.cfi_restore 3
	.cfi_def_cfa_offset 4
.LVL806:
	shrl	$14, %eax
	ret
.LVL807:
.L803:
	.cfi_restore_state
.LBB7315:
.LBB7313:
	call	cap_page_directory_cap_get_capPDIsMapped.part.149
.LVL808:
.LBE7313:
.LBE7315:
	.cfi_endproc
.LFE475:
	.size	isValidNativeRoot, .-isValidNativeRoot
	.section	.text.unlikely
.LCOLDE240:
	.text
.LHOTE240:
	.section	.text.unlikely
.LCOLDB241:
	.text
.LHOTB241:
	.p2align 4,,15
	.globl	getValidNativeRoot
	.type	getValidNativeRoot, @function
getValidNativeRoot:
.LFB476:
	.loc 17 189 0
	.cfi_startproc
.LVL809:
	pushl	%edi
	.cfi_def_cfa_offset 8
	.cfi_offset 7, -8
	pushl	%esi
	.cfi_def_cfa_offset 12
	.cfi_offset 6, -12
	subl	$12, %esp
	.cfi_def_cfa_offset 24
	.loc 17 189 0
	movl	24(%esp), %esi
	movl	28(%esp), %edi
	.loc 17 190 0
	pushl	%edi
	.cfi_def_cfa_offset 28
	pushl	%esi
	.cfi_def_cfa_offset 32
	call	isValidNativeRoot
.LVL810:
	addl	$16, %esp
	.cfi_def_cfa_offset 16
	testl	%eax, %eax
	je	.L807
.LVL811:
.LBB7316:
.LBB7317:
	.loc 11 3227 0
	movl	%esi, %eax
	andl	$15, %eax
	cmpl	$5, %eax
	jne	.L809
.LVL812:
.LBE7317:
.LBE7316:
	.loc 17 191 0
	andl	$16777200, %esi
	.loc 17 194 0
	addl	$4, %esp
	.cfi_remember_state
	.cfi_def_cfa_offset 12
	.loc 17 191 0
	movl	%esi, %eax
	.loc 17 194 0
	popl	%esi
	.cfi_restore 6
	.cfi_def_cfa_offset 8
	.loc 17 191 0
	sall	$8, %eax
	.loc 17 194 0
	popl	%edi
	.cfi_restore 7
	.cfi_def_cfa_offset 4
	ret
.LVL813:
	.p2align 4,,10
	.p2align 3
.L807:
	.cfi_restore_state
	addl	$4, %esp
	.cfi_remember_state
	.cfi_def_cfa_offset 12
	.loc 17 193 0
	xorl	%eax, %eax
	.loc 17 194 0
	popl	%esi
	.cfi_restore 6
	.cfi_def_cfa_offset 8
.LVL814:
	popl	%edi
	.cfi_restore 7
	.cfi_def_cfa_offset 4
.LVL815:
	ret
.LVL816:
.L809:
	.cfi_restore_state
.LBB7319:
.LBB7318:
	call	cap_page_directory_cap_get_capPDBasePtr.isra.129.part.130
.LVL817:
.LBE7318:
.LBE7319:
	.cfi_endproc
.LFE476:
	.size	getValidNativeRoot, .-getValidNativeRoot
	.section	.text.unlikely
.LCOLDE241:
	.text
.LHOTE241:
	.section	.text.unlikely
.LCOLDB242:
	.text
.LHOTB242:
	.p2align 4,,15
	.globl	isValidVTableRoot
	.type	isValidVTableRoot, @function
isValidVTableRoot:
.LFB534:
	.loc 20 125 0
	.cfi_startproc
.LVL818:
	.loc 20 126 0
	jmp	isValidNativeRoot
.LVL819:
	.cfi_endproc
.LFE534:
	.size	isValidVTableRoot, .-isValidVTableRoot
	.section	.text.unlikely
.LCOLDE242:
	.text
.LHOTE242:
	.section	.rodata.str1.4
	.align 4
.LC243:
	.string	"(vspace_root & ~0xfffff000u) == ((0 && (vspace_root & (1u << 31))) ? 0x0 : 0)"
	.section	.boot.text
.LCOLDB244:
.LHOTB244:
	.p2align 4,,15
	.globl	write_it_asid_pool
	.type	write_it_asid_pool, @function
write_it_asid_pool:
.LFB539:
	.loc 20 528 0
	.cfi_startproc
.LVL820:
	pushl	%esi
	.cfi_def_cfa_offset 8
	.cfi_offset 6, -8
	pushl	%ebx
	.cfi_def_cfa_offset 12
	.cfi_offset 3, -12
	subl	$4, %esp
	.cfi_def_cfa_offset 16
	.loc 20 528 0
	movl	16(%esp), %eax
.LVL821:
	movl	20(%esp), %ebx
.LVL822:
	movl	24(%esp), %edx
.LVL823:
	movl	28(%esp), %esi
.LVL824:
.LBB7400:
.LBB7401:
.LBB7402:
.LBB7403:
	.loc 11 2202 0
	movl	%eax, %ecx
	andl	$14, %ecx
	cmpl	$14, %ecx
	je	.L812
	.loc 11 2203 0
	movl	%eax, %ecx
	andl	$15, %ecx
.LVL825:
.LBE7403:
.LBE7402:
	.loc 54 387 0
	cmpl	$14, %ecx
	ja	.L813
	jmp	*.L815(,%ecx,4)
	.section	.rodata
	.align 4
	.align 4
.L815:
	.long	.L813
	.long	.L813
	.long	.L896
	.long	.L813
	.long	.L816
	.long	.L813
	.long	.L896
	.long	.L813
	.long	.L881
	.long	.L813
	.long	.L819
	.long	.L813
	.long	.L820
	.long	.L813
	.long	.L881
	.section	.boot.text
.LVL826:
	.p2align 4,,10
	.p2align 3
.L816:
	.loc 54 392 0
	movl	%ebx, %eax
.LVL827:
.L896:
	andl	$-16, %eax
.LVL828:
.L818:
.LBE7401:
.LBE7400:
.LBB7454:
.LBB7455:
.LBB7456:
.LBB7457:
	.loc 11 2202 0
	movl	%edx, %ecx
	andl	$14, %ecx
	cmpl	$14, %ecx
	je	.L844
	.loc 11 2203 0
	movl	%edx, %ecx
	andl	$15, %ecx
.LVL829:
.LBE7457:
.LBE7456:
	.loc 54 387 0
	cmpl	$14, %ecx
	ja	.L845
	jmp	*.L847(,%ecx,4)
	.section	.rodata
	.align 4
	.align 4
.L847:
	.long	.L845
	.long	.L845
	.long	.L849
	.long	.L845
	.long	.L848
	.long	.L845
	.long	.L849
	.long	.L845
	.long	.L884
	.long	.L845
	.long	.L851
	.long	.L845
	.long	.L852
	.long	.L845
	.long	.L884
	.section	.boot.text
	.p2align 4,,10
	.p2align 3
.L856:
.LVL830:
.LBB7459:
.LBB7460:
	.loc 11 2576 0
	movl	%edx, %ecx
	andl	$15, %ecx
	cmpl	$6, %ecx
	jne	.L830
.LVL831:
	.p2align 4,,10
	.p2align 3
.L849:
.LBE7460:
.LBE7459:
	.loc 54 395 0
	andl	$-16, %edx
.LVL832:
.L861:
.LBE7455:
.LBE7454:
.LBB7506:
.LBB7507:
	.loc 11 1330 0
	testl	$4095, %edx
	jne	.L874
	andl	$-4096, %edx
.LVL833:
	orl	$1, %edx
.LVL834:
.LBE7507:
.LBE7506:
	.loc 20 530 0
	movl	%edx, 4(%eax)
	.loc 20 531 0
	movl	%eax, x86KSASIDTable
	.loc 20 532 0
	addl	$4, %esp
	.cfi_remember_state
	.cfi_def_cfa_offset 12
.LVL835:
	popl	%ebx
	.cfi_restore 3
	.cfi_def_cfa_offset 8
.LVL836:
	popl	%esi
	.cfi_restore 6
	.cfi_def_cfa_offset 4
.LVL837:
	ret
.LVL838:
	.p2align 4,,10
	.p2align 3
.L812:
	.cfi_restore_state
.LBB7511:
.LBB7446:
.LBB7405:
.LBB7404:
	.loc 11 2204 0
	movzbl	%al, %ecx
.LVL839:
.LBE7404:
.LBE7405:
	.loc 54 387 0
	cmpl	$62, %ecx
	ja	.L813
	jmp	*.L822(,%ecx,4)
	.section	.rodata
	.align 4
	.align 4
.L822:
	.long	.L813
	.long	.L813
	.long	.L821
	.long	.L813
	.long	.L823
	.long	.L813
	.long	.L824
	.long	.L813
	.long	.L881
	.long	.L813
	.long	.L825
	.long	.L813
	.long	.L826
	.long	.L813
	.long	.L881
	.long	.L813
	.long	.L813
	.long	.L813
	.long	.L813
	.long	.L813
	.long	.L813
	.long	.L813
	.long	.L813
	.long	.L813
	.long	.L813
	.long	.L813
	.long	.L813
	.long	.L813
	.long	.L813
	.long	.L813
	.long	.L881
	.long	.L813
	.long	.L813
	.long	.L813
	.long	.L813
	.long	.L813
	.long	.L813
	.long	.L813
	.long	.L813
	.long	.L813
	.long	.L813
	.long	.L813
	.long	.L813
	.long	.L813
	.long	.L813
	.long	.L813
	.long	.L827
	.long	.L813
	.long	.L813
	.long	.L813
	.long	.L813
	.long	.L813
	.long	.L813
	.long	.L813
	.long	.L813
	.long	.L813
	.long	.L813
	.long	.L813
	.long	.L813
	.long	.L813
	.long	.L813
	.long	.L813
	.long	.L881
	.section	.boot.text
.LVL840:
	.p2align 4,,10
	.p2align 3
.L844:
.LBE7446:
.LBE7511:
.LBB7512:
.LBB7498:
.LBB7461:
.LBB7458:
	.loc 11 2204 0
	movzbl	%dl, %ecx
.LVL841:
.LBE7458:
.LBE7461:
	.loc 54 387 0
	cmpl	$62, %ecx
	ja	.L845
	jmp	*.L854(,%ecx,4)
	.section	.rodata
	.align 4
	.align 4
.L854:
	.long	.L845
	.long	.L845
	.long	.L853
	.long	.L845
	.long	.L855
	.long	.L845
	.long	.L856
	.long	.L845
	.long	.L884
	.long	.L845
	.long	.L857
	.long	.L845
	.long	.L858
	.long	.L845
	.long	.L884
	.long	.L845
	.long	.L845
	.long	.L845
	.long	.L845
	.long	.L845
	.long	.L845
	.long	.L845
	.long	.L845
	.long	.L845
	.long	.L845
	.long	.L845
	.long	.L845
	.long	.L845
	.long	.L845
	.long	.L845
	.long	.L884
	.long	.L845
	.long	.L845
	.long	.L845
	.long	.L845
	.long	.L845
	.long	.L845
	.long	.L845
	.long	.L845
	.long	.L845
	.long	.L845
	.long	.L845
	.long	.L845
	.long	.L845
	.long	.L845
	.long	.L845
	.long	.L859
	.long	.L845
	.long	.L845
	.long	.L845
	.long	.L845
	.long	.L845
	.long	.L845
	.long	.L845
	.long	.L845
	.long	.L845
	.long	.L845
	.long	.L845
	.long	.L845
	.long	.L845
	.long	.L845
	.long	.L845
	.long	.L884
	.section	.boot.text
.LVL842:
	.p2align 4,,10
	.p2align 3
.L881:
.LBE7498:
.LBE7512:
.LBB7513:
.LBB7447:
.LBB7406:
.LBB7407:
	.loc 55 280 0
	xorl	%eax, %eax
.LVL843:
	jmp	.L818
.LVL844:
	.p2align 4,,10
	.p2align 3
.L820:
.LBE7407:
.LBE7406:
	.loc 54 401 0
	andl	$-1024, %eax
.LVL845:
	jmp	.L818
.LVL846:
	.p2align 4,,10
	.p2align 3
.L819:
	.loc 54 398 0
	andl	$-32, %eax
.LVL847:
	jmp	.L818
.LVL848:
	.p2align 4,,10
	.p2align 3
.L884:
.LBE7447:
.LBE7513:
.LBB7514:
.LBB7499:
.LBB7462:
.LBB7463:
	.loc 55 268 0
	movl	$1, %edx
.LVL849:
.LBE7463:
.LBE7462:
.LBE7499:
.LBE7514:
	.loc 20 530 0
	movl	%edx, 4(%eax)
	.loc 20 531 0
	movl	%eax, x86KSASIDTable
	.loc 20 532 0
	addl	$4, %esp
	.cfi_remember_state
	.cfi_def_cfa_offset 12
.LVL850:
	popl	%ebx
	.cfi_restore 3
	.cfi_def_cfa_offset 8
.LVL851:
	popl	%esi
	.cfi_restore 6
	.cfi_def_cfa_offset 4
.LVL852:
	ret
.LVL853:
	.p2align 4,,10
	.p2align 3
.L857:
	.cfi_restore_state
.LBB7515:
.LBB7500:
.LBB7479:
.LBB7480:
	.loc 11 2738 0
	movl	%edx, %ecx
	andl	$15, %ecx
	cmpl	$10, %ecx
	jne	.L829
.LVL854:
.L851:
.LBE7480:
.LBE7479:
	.loc 54 398 0
	andl	$-32, %edx
.LVL855:
	jmp	.L861
.LVL856:
	.p2align 4,,10
	.p2align 3
.L855:
.LBB7481:
.LBB7482:
	.loc 11 2358 0
	andl	$15, %edx
.LVL857:
	cmpl	$4, %edx
	jne	.L831
.LVL858:
.L848:
.LBE7482:
.LBE7481:
	.loc 54 392 0
	andl	$-16, %esi
.LVL859:
	movl	%esi, %edx
	jmp	.L861
.LVL860:
	.p2align 4,,10
	.p2align 3
.L858:
.LBB7483:
.LBB7484:
	.loc 11 2768 0
	movl	%edx, %ecx
	andl	$15, %ecx
	cmpl	$12, %ecx
	jne	.L828
.LVL861:
.L852:
.LBE7484:
.LBE7483:
	.loc 54 401 0
	andl	$-1024, %edx
.LVL862:
	jmp	.L861
.LVL863:
	.p2align 4,,10
	.p2align 3
.L813:
.LBE7500:
.LBE7515:
.LBB7516:
.LBB7448:
.LBB7426:
.LBB7422:
	.loc 55 268 0
	cmpl	$31, %ecx
	ja	.L862
	jmp	*.L834(,%ecx,4)
	.section	.rodata
	.align 4
	.align 4
.L834:
	.long	.L862
	.long	.L833
	.long	.L862
	.long	.L835
	.long	.L862
	.long	.L836
	.long	.L862
	.long	.L862
	.long	.L862
	.long	.L881
	.long	.L862
	.long	.L837
	.long	.L862
	.long	.L881
	.long	.L862
	.long	.L838
	.long	.L862
	.long	.L862
	.long	.L862
	.long	.L862
	.long	.L862
	.long	.L862
	.long	.L862
	.long	.L862
	.long	.L862
	.long	.L862
	.long	.L862
	.long	.L862
	.long	.L862
	.long	.L862
	.long	.L862
	.long	.L881
	.section	.boot.text
.LVL864:
	.p2align 4,,10
	.p2align 3
.L845:
.LBE7422:
.LBE7426:
.LBE7448:
.LBE7516:
.LBB7517:
.LBB7501:
.LBB7485:
.LBB7476:
	cmpl	$31, %ecx
	ja	.L862
	jmp	*.L864(,%ecx,4)
	.section	.rodata
	.align 4
	.align 4
.L864:
	.long	.L862
	.long	.L863
	.long	.L862
	.long	.L865
	.long	.L862
	.long	.L866
	.long	.L862
	.long	.L862
	.long	.L862
	.long	.L884
	.long	.L862
	.long	.L867
	.long	.L862
	.long	.L884
	.long	.L862
	.long	.L868
	.long	.L862
	.long	.L862
	.long	.L862
	.long	.L862
	.long	.L862
	.long	.L862
	.long	.L862
	.long	.L862
	.long	.L862
	.long	.L862
	.long	.L862
	.long	.L862
	.long	.L862
	.long	.L862
	.long	.L862
	.long	.L884
	.section	.boot.text
.LVL865:
	.p2align 4,,10
	.p2align 3
.L827:
.LBE7476:
.LBE7485:
.LBE7501:
.LBE7517:
.LBB7518:
.LBB7449:
.LBB7427:
.LBB7428:
.LBB7429:
.LBB7430:
.LBB7431:
.LBB7432:
	.loc 11 3437 0
	andl	$16128, %eax
.LVL866:
	shrl	$8, %eax
	movl	%eax, %ecx
.LVL867:
.LBE7432:
.LBE7431:
	.loc 54 103 0
	movl	$-32, %eax
	cmpl	$32, %ecx
	je	.L875
	andl	$31, %ecx
	movl	$-1, %eax
	addl	$1, %ecx
	sall	%cl, %eax
.L875:
.LVL868:
.LBE7430:
.LBE7429:
.LBE7428:
.LBE7427:
	.loc 54 404 0
	andl	%ebx, %eax
	jmp	.L818
.LVL869:
	.p2align 4,,10
	.p2align 3
.L859:
.LBE7449:
.LBE7518:
.LBB7519:
.LBB7502:
.LBB7486:
.LBB7487:
.LBB7488:
.LBB7489:
.LBB7490:
.LBB7491:
	.loc 11 3437 0
	andl	$16128, %edx
.LVL870:
.LBE7491:
.LBE7490:
	.loc 54 103 0
	movl	$-32, %ebx
.LVL871:
.LBB7493:
.LBB7492:
	.loc 11 3437 0
	shrl	$8, %edx
.LBE7492:
.LBE7493:
	.loc 54 103 0
	cmpl	$32, %edx
	je	.L877
	andl	$31, %edx
	movl	$-1, %ebx
	leal	1(%edx), %ecx
	sall	%cl, %ebx
.L877:
.LBE7489:
.LBE7488:
.LBE7487:
.LBE7486:
	.loc 54 404 0
	andl	%ebx, %esi
.LVL872:
	movl	%esi, %edx
	jmp	.L861
.LVL873:
	.p2align 4,,10
	.p2align 3
.L825:
.LBE7502:
.LBE7519:
.LBB7520:
.LBB7450:
.LBB7433:
.LBB7434:
	.loc 11 2738 0
	movl	%eax, %ecx
	andl	$15, %ecx
	cmpl	$10, %ecx
	je	.L819
.LVL874:
.L829:
	call	cap_cnode_cap_get_capCNodePtr.isra.118.part.119
.LVL875:
	.p2align 4,,10
	.p2align 3
.L826:
.LBE7434:
.LBE7433:
.LBB7435:
.LBB7436:
	.loc 11 2768 0
	movl	%eax, %ecx
	andl	$15, %ecx
	cmpl	$12, %ecx
	je	.L820
.LVL876:
.L828:
	call	cap_thread_cap_get_capTCBPtr.isra.89.part.90
.LVL877:
	.p2align 4,,10
	.p2align 3
.L821:
.LBE7436:
.LBE7435:
.LBB7437:
.LBB7438:
	.loc 11 2320 0
	movl	%eax, %ecx
	andl	$15, %ecx
	cmpl	$2, %ecx
	je	.L896
.LVL878:
.L860:
	call	cap_untyped_cap_get_capPtr.isra.115.part.116
.LVL879:
	.p2align 4,,10
	.p2align 3
.L823:
.LBE7438:
.LBE7437:
.LBB7439:
.LBB7440:
	.loc 11 2358 0
	andl	$15, %eax
.LVL880:
	cmpl	$4, %eax
	je	.L816
.LVL881:
.L831:
	call	cap_endpoint_cap_get_capEPPtr.part.117
.LVL882:
	.p2align 4,,10
	.p2align 3
.L824:
.LBE7440:
.LBE7439:
.LBB7441:
.LBB7442:
	.loc 11 2576 0
	movl	%eax, %ecx
	andl	$15, %ecx
	cmpl	$6, %ecx
	je	.L896
.LVL883:
.L830:
	call	cap_notification_cap_get_capNtfnPtr.isra.97.part.98
.LVL884:
	.p2align 4,,10
	.p2align 3
.L853:
.LBE7442:
.LBE7441:
.LBE7450:
.LBE7520:
.LBB7521:
.LBB7503:
.LBB7494:
.LBB7495:
	.loc 11 2320 0
	movl	%edx, %ecx
	andl	$15, %ecx
	cmpl	$2, %ecx
	je	.L849
	jmp	.L860
.LVL885:
	.p2align 4,,10
	.p2align 3
.L833:
.LBE7495:
.LBE7494:
.LBE7503:
.LBE7521:
.LBB7522:
.LBB7451:
.LBB7443:
.LBB7423:
.LBB7408:
.LBB7409:
	.loc 11 2996 0
	movl	%eax, %ecx
	andl	$15, %ecx
	cmpl	$1, %ecx
	jne	.L869
.LVL886:
.L843:
.LBE7409:
.LBE7408:
	.loc 55 294 0
	andl	$16777200, %eax
.LVL887:
	sall	$8, %eax
	jmp	.L818
.LVL888:
	.p2align 4,,10
	.p2align 3
.L837:
.LBB7411:
.LBB7412:
	.loc 11 3287 0
	movl	%eax, %ecx
	andl	$15, %ecx
	cmpl	$11, %ecx
	je	.L843
.LVL889:
.L873:
	call	cap_asid_pool_cap_get_capASIDPool.isra.134.part.135
.LVL890:
	.p2align 4,,10
	.p2align 3
.L836:
.LBE7412:
.LBE7411:
.LBB7413:
.LBB7414:
	.loc 11 3227 0
	movl	%eax, %ecx
	andl	$15, %ecx
	cmpl	$5, %ecx
	je	.L843
.LVL891:
.L871:
	call	cap_page_directory_cap_get_capPDBasePtr.isra.129.part.130
.LVL892:
	.p2align 4,,10
	.p2align 3
.L835:
.LBE7414:
.LBE7413:
.LBB7415:
.LBB7416:
	.loc 11 3123 0
	movl	%eax, %ecx
	andl	$15, %ecx
	cmpl	$3, %ecx
	je	.L843
.LVL893:
.L870:
	call	cap_page_table_cap_get_capPTBasePtr.isra.127.part.128
.LVL894:
	.p2align 4,,10
	.p2align 3
.L838:
.LBE7416:
.LBE7415:
.LBB7417:
.LBB7418:
	.loc 11 3590 0
	cmpb	$15, %al
	jne	.L872
.LVL895:
.LBE7418:
.LBE7417:
	.loc 55 287 0
	andl	$268435200, %eax
.LVL896:
	sall	$4, %eax
	jmp	.L818
.LVL897:
	.p2align 4,,10
	.p2align 3
.L867:
.LBE7423:
.LBE7443:
.LBE7451:
.LBE7522:
.LBB7523:
.LBB7504:
.LBB7496:
.LBB7477:
.LBB7464:
.LBB7465:
	.loc 11 3287 0
	movl	%edx, %ecx
	andl	$15, %ecx
	cmpl	$11, %ecx
	jne	.L873
.LVL898:
.L898:
.LBE7465:
.LBE7464:
	.loc 55 294 0
	andl	$16777200, %edx
.LVL899:
	sall	$8, %edx
	jmp	.L861
.LVL900:
	.p2align 4,,10
	.p2align 3
.L868:
.LBB7466:
.LBB7467:
	.loc 11 3590 0
	cmpb	$15, %dl
	jne	.L872
.LVL901:
.LBE7467:
.LBE7466:
	.loc 55 287 0
	andl	$268435200, %edx
.LVL902:
	sall	$4, %edx
	jmp	.L861
.LVL903:
	.p2align 4,,10
	.p2align 3
.L866:
.LBB7468:
.LBB7469:
	.loc 11 3227 0
	movl	%edx, %ecx
	andl	$15, %ecx
	cmpl	$5, %ecx
	je	.L898
	jmp	.L871
.LVL904:
	.p2align 4,,10
	.p2align 3
.L865:
.LBE7469:
.LBE7468:
.LBB7470:
.LBB7471:
	.loc 11 3123 0
	movl	%edx, %ecx
	andl	$15, %ecx
	cmpl	$3, %ecx
	je	.L898
	jmp	.L870
.LVL905:
	.p2align 4,,10
	.p2align 3
.L863:
.LBE7471:
.LBE7470:
.LBB7472:
.LBB7473:
	.loc 11 2996 0
	movl	%edx, %ecx
	andl	$15, %ecx
	cmpl	$1, %ecx
	je	.L898
.LVL906:
.L869:
.LBE7473:
.LBE7472:
.LBE7477:
.LBE7496:
.LBE7504:
.LBE7523:
.LBB7524:
.LBB7452:
.LBB7444:
.LBB7424:
.LBB7420:
.LBB7410:
	call	cap_frame_cap_get_capFBasePtr.isra.125.part.126
.LVL907:
	.p2align 4,,10
	.p2align 3
.L862:
.LBE7410:
.LBE7420:
.LBE7424:
.LBE7444:
.LBE7452:
.LBE7524:
.LBB7525:
.LBB7505:
.LBB7497:
.LBB7478:
.LBB7474:
.LBB7475:
	.loc 46 134 0
	pushl	$__func__.3040
	.cfi_remember_state
	.cfi_def_cfa_offset 20
.LVL908:
	pushl	$134
	.cfi_def_cfa_offset 24
.LVL909:
	pushl	$.LC145
	.cfi_def_cfa_offset 28
.LVL910:
	pushl	$.LC226
	.cfi_def_cfa_offset 32
.LVL911:
	call	_fail
.LVL912:
.L874:
	.cfi_restore_state
.LBE7475:
.LBE7474:
.LBE7478:
.LBE7497:
.LBE7505:
.LBE7525:
.LBB7526:
.LBB7510:
.LBB7508:
.LBB7509:
	.loc 11 1330 0
	pushl	$__FUNCTION__.1874
	.cfi_remember_state
	.cfi_def_cfa_offset 20
.LVL913:
	pushl	$1330
	.cfi_def_cfa_offset 24
.LVL914:
	pushl	$.LC154
	.cfi_def_cfa_offset 28
.LVL915:
	pushl	$.LC243
	.cfi_def_cfa_offset 32
.LVL916:
	call	_assert_fail
.LVL917:
.L872:
	.cfi_restore_state
.LBE7509:
.LBE7508:
.LBE7510:
.LBE7526:
.LBB7527:
.LBB7453:
.LBB7445:
.LBB7425:
.LBB7421:
.LBB7419:
	call	cap_io_page_table_cap_get_capIOPTBasePtr.isra.132.part.133
.LVL918:
.LBE7419:
.LBE7421:
.LBE7425:
.LBE7445:
.LBE7453:
.LBE7527:
	.cfi_endproc
.LFE539:
	.size	write_it_asid_pool, .-write_it_asid_pool
.LCOLDE244:
.LHOTE244:
	.section	.rodata.str1.4
	.align 4
.LC245:
	.string	"/home/axjllt/Desktop/ori_refos/kernel/include/api/syscall.h"
	.section	.rodata.str1.1
.LC246:
	.string	"ipc_buffer != NULL"
	.section	.text.unlikely
.LCOLDB247:
.LHOTB247:
	.type	getSyscallArg.part.152, @function
getSyscallArg.part.152:
.LFB1047:
	.file 56 "/home/axjllt/Desktop/ori_refos/kernel/include/api/syscall.h"
	.loc 56 28 0
	.cfi_startproc
.LVL919:
	subl	$12, %esp
	.cfi_def_cfa_offset 16
	.loc 56 34 0
	pushl	$__FUNCTION__.5152
	.cfi_def_cfa_offset 20
	pushl	$34
	.cfi_def_cfa_offset 24
	pushl	$.LC245
	.cfi_def_cfa_offset 28
	pushl	$.LC246
	.cfi_def_cfa_offset 32
	call	_assert_fail
.LVL920:
	.cfi_endproc
.LFE1047:
	.size	getSyscallArg.part.152, .-getSyscallArg.part.152
.LCOLDE247:
.LHOTE247:
	.section	.rodata.str1.4
	.align 4
.LC248:
	.string	"((pde_ptr->words[0] >> 7) & 0x1) == pde_pde_large"
	.section	.text.unlikely
.LCOLDB249:
.LHOTB249:
	.type	pde_pde_large_ptr_get_present.part.153, @function
pde_pde_large_ptr_get_present.part.153:
.LFB1048:
	.loc 11 2159 0
	.cfi_startproc
.LVL921:
	subl	$12, %esp
	.cfi_def_cfa_offset 16
	.loc 11 2161 0
	pushl	$__FUNCTION__.2212
	.cfi_def_cfa_offset 20
	pushl	$2162
	.cfi_def_cfa_offset 24
	pushl	$.LC154
	.cfi_def_cfa_offset 28
	pushl	$.LC248
	.cfi_def_cfa_offset 32
	call	_assert_fail
.LVL922:
	.cfi_endproc
.LFE1048:
	.size	pde_pde_large_ptr_get_present.part.153, .-pde_pde_large_ptr_get_present.part.153
.LCOLDE249:
.LHOTE249:
.LCOLDB250:
.LHOTB250:
	.type	pde_pde_large_ptr_get_page_base_address.part.155, @function
pde_pde_large_ptr_get_page_base_address.part.155:
.LFB1050:
	.loc 11 2089 0
	.cfi_startproc
.LVL923:
	subl	$12, %esp
	.cfi_def_cfa_offset 16
	.loc 11 2091 0
	pushl	$__FUNCTION__.2187
	.cfi_def_cfa_offset 20
	pushl	$2092
	.cfi_def_cfa_offset 24
	pushl	$.LC154
	.cfi_def_cfa_offset 28
	pushl	$.LC248
	.cfi_def_cfa_offset 32
	call	_assert_fail
.LVL924:
	.cfi_endproc
.LFE1050:
	.size	pde_pde_large_ptr_get_page_base_address.part.155, .-pde_pde_large_ptr_get_page_base_address.part.155
.LCOLDE250:
.LHOTE250:
.LCOLDB251:
.LHOTB251:
	.type	cap_frame_cap_set_capFMapType.part.156, @function
cap_frame_cap_set_capFMapType.part.156:
.LFB1051:
	.loc 11 2903 0
	.cfi_startproc
.LVL925:
	subl	$12, %esp
	.cfi_def_cfa_offset 16
	.loc 11 2904 0
	pushl	$__FUNCTION__.2505
	.cfi_def_cfa_offset 20
	pushl	$2905
	.cfi_def_cfa_offset 24
	pushl	$.LC154
	.cfi_def_cfa_offset 28
	pushl	$.LC216
	.cfi_def_cfa_offset 32
	call	_assert_fail
.LVL926:
	.cfi_endproc
.LFE1051:
	.size	cap_frame_cap_set_capFMapType.part.156, .-cap_frame_cap_set_capFMapType.part.156
.LCOLDE251:
.LHOTE251:
.LCOLDB252:
.LHOTB252:
	.type	cap_frame_cap_set_capFMappedASID, @function
cap_frame_cap_set_capFMappedASID:
.LFB283:
	.loc 46 81 0
	.cfi_startproc
.LVL927:
	pushl	%edi
	.cfi_def_cfa_offset 8
	.cfi_offset 7, -8
.LBB7532:
.LBB7533:
	.loc 11 2839 0
	movl	%edx, %edi
.LBE7533:
.LBE7532:
	.loc 46 81 0
	pushl	%esi
	.cfi_def_cfa_offset 12
	.cfi_offset 6, -12
.LBB7536:
.LBB7534:
	.loc 11 2839 0
	andl	$15, %edi
.LBE7534:
.LBE7536:
	.loc 46 81 0
	pushl	%ebx
	.cfi_def_cfa_offset 16
	.cfi_offset 3, -16
	.loc 46 81 0
	movl	16(%esp), %ebx
	.loc 46 82 0
	movl	%ebx, %esi
	andl	$1023, %esi
.LVL928:
.LBB7537:
.LBB7535:
	.loc 11 2839 0
	decl	%edi
	je	.L908
	pushl	$__FUNCTION__.2480
	.cfi_remember_state
	.cfi_def_cfa_offset 20
	pushl	$2840
	.cfi_def_cfa_offset 24
	pushl	$.LC154
	.cfi_def_cfa_offset 28
	pushl	$.LC216
	.cfi_def_cfa_offset 32
	call	_assert_fail
.LVL929:
.L908:
	.cfi_restore_state
.LBE7535:
.LBE7537:
.LBB7538:
.LBB7539:
	.loc 11 2964 0
	sall	$16, %ebx
	sall	$20, %esi
.LVL930:
	.loc 11 2962 0
	andl	$-201326593, %edx
.LVL931:
	.loc 11 2964 0
	andl	$201326592, %ebx
	andl	$-1072693249, %ecx
.LVL932:
	orl	%ebx, %edx
	orl	%esi, %ecx
.LBE7539:
.LBE7538:
	.loc 46 84 0
	popl	%ebx
	.cfi_restore 3
	.cfi_def_cfa_offset 12
.LBB7542:
.LBB7540:
	.loc 11 2964 0
	movl	%edx, (%eax)
.LBE7540:
.LBE7542:
	.loc 46 84 0
	popl	%esi
	.cfi_restore 6
	.cfi_def_cfa_offset 8
.LBB7543:
.LBB7541:
	.loc 11 2964 0
	movl	%ecx, 4(%eax)
.LVL933:
.LBE7541:
.LBE7543:
	.loc 46 84 0
	popl	%edi
	.cfi_restore 7
	.cfi_def_cfa_offset 4
	ret
	.cfi_endproc
.LFE283:
	.size	cap_frame_cap_set_capFMappedASID, .-cap_frame_cap_set_capFMappedASID
.LCOLDE252:
.LHOTE252:
.LCOLDB253:
.LHOTB253:
	.type	cap_frame_cap_get_capFMapType.isra.158.part.159, @function
cap_frame_cap_get_capFMapType.isra.158.part.159:
.LFB1054:
	.loc 11 2889 0
	.cfi_startproc
	subl	$12, %esp
	.cfi_def_cfa_offset 16
	.loc 11 2891 0
	pushl	$__FUNCTION__.2500
	.cfi_def_cfa_offset 20
	pushl	$2892
	.cfi_def_cfa_offset 24
	pushl	$.LC154
	.cfi_def_cfa_offset 28
	pushl	$.LC216
	.cfi_def_cfa_offset 32
	call	_assert_fail
.LVL934:
	.cfi_endproc
.LFE1054:
	.size	cap_frame_cap_get_capFMapType.isra.158.part.159, .-cap_frame_cap_get_capFMapType.isra.158.part.159
.LCOLDE253:
.LHOTE253:
.LCOLDB254:
.LHOTB254:
	.type	cap_frame_cap_get_capFSize.part.160, @function
cap_frame_cap_get_capFSize.part.160:
.LFB1055:
	.loc 11 2810 0
	.cfi_startproc
	subl	$12, %esp
	.cfi_def_cfa_offset 16
	.loc 11 2812 0
	pushl	$__FUNCTION__.2470
	.cfi_def_cfa_offset 20
	pushl	$2813
	.cfi_def_cfa_offset 24
	pushl	$.LC154
	.cfi_def_cfa_offset 28
	pushl	$.LC216
	.cfi_def_cfa_offset 32
	call	_assert_fail
.LVL935:
	.cfi_endproc
.LFE1055:
	.size	cap_frame_cap_get_capFSize.part.160, .-cap_frame_cap_get_capFSize.part.160
.LCOLDE254:
.LHOTE254:
	.section	.rodata.str1.4
	.align 4
.LC255:
	.string	"((seL4_Fault.words[0] >> 0) & 0x7) == seL4_Fault_VMFault"
	.section	.text.unlikely
.LCOLDB256:
.LHOTB256:
	.type	seL4_Fault_VMFault_get_address.part.161, @function
seL4_Fault_VMFault_get_address.part.161:
.LFB1056:
	.loc 11 1747 0
	.cfi_startproc
	subl	$12, %esp
	.cfi_def_cfa_offset 16
	.loc 11 1749 0
	pushl	$__FUNCTION__.2048
	.cfi_def_cfa_offset 20
	pushl	$1750
	.cfi_def_cfa_offset 24
	pushl	$.LC154
	.cfi_def_cfa_offset 28
	pushl	$.LC255
	.cfi_def_cfa_offset 32
	call	_assert_fail
.LVL936:
	.cfi_endproc
.LFE1056:
	.size	seL4_Fault_VMFault_get_address.part.161, .-seL4_Fault_VMFault_get_address.part.161
.LCOLDE256:
.LHOTE256:
.LCOLDB257:
.LHOTB257:
	.type	seL4_Fault_VMFault_get_instructionFault.isra.162.part.163, @function
seL4_Fault_VMFault_get_instructionFault.isra.162.part.163:
.LFB1058:
	.loc 11 1775 0
	.cfi_startproc
	subl	$12, %esp
	.cfi_def_cfa_offset 16
	.loc 11 1777 0
	pushl	$__FUNCTION__.2058
	.cfi_def_cfa_offset 20
	pushl	$1778
	.cfi_def_cfa_offset 24
	pushl	$.LC154
	.cfi_def_cfa_offset 28
	pushl	$.LC255
	.cfi_def_cfa_offset 32
	call	_assert_fail
.LVL937:
	.cfi_endproc
.LFE1058:
	.size	seL4_Fault_VMFault_get_instructionFault.isra.162.part.163, .-seL4_Fault_VMFault_get_instructionFault.isra.162.part.163
.LCOLDE257:
.LHOTE257:
.LCOLDB258:
.LHOTB258:
	.type	seL4_Fault_VMFault_get_FSR.isra.164.part.165, @function
seL4_Fault_VMFault_get_FSR.isra.164.part.165:
.LFB1060:
	.loc 11 1761 0
	.cfi_startproc
	subl	$12, %esp
	.cfi_def_cfa_offset 16
	.loc 11 1763 0
	pushl	$__FUNCTION__.2053
	.cfi_def_cfa_offset 20
	pushl	$1764
	.cfi_def_cfa_offset 24
	pushl	$.LC154
	.cfi_def_cfa_offset 28
	pushl	$.LC255
	.cfi_def_cfa_offset 32
	call	_assert_fail
.LVL938:
	.cfi_endproc
.LFE1060:
	.size	seL4_Fault_VMFault_get_FSR.isra.164.part.165, .-seL4_Fault_VMFault_get_FSR.isra.164.part.165
.LCOLDE258:
.LHOTE258:
.LCOLDB259:
	.text
.LHOTB259:
	.p2align 4,,15
	.globl	Arch_setMRs_fault
	.type	Arch_setMRs_fault, @function
Arch_setMRs_fault:
.LFB494:
	.loc 43 32 0
	.cfi_startproc
.LVL939:
	pushl	%esi
	.cfi_def_cfa_offset 8
	.cfi_offset 6, -8
	pushl	%ebx
	.cfi_def_cfa_offset 12
	.cfi_offset 3, -12
	subl	$4, %esp
	.cfi_def_cfa_offset 16
	.loc 43 33 0
	cmpl	$5, 28(%esp)
	.loc 43 32 0
	movl	16(%esp), %edx
	movl	20(%esp), %ebx
	movl	24(%esp), %ecx
	.loc 43 33 0
	jne	.L928
.LVL940:
.LBB7586:
.LBB7587:
.LBB7588:
	.loc 15 30 0
	movl	556(%edx), %eax
	movl	%eax, 532(%ebx)
.LVL941:
.LBE7588:
.LBE7587:
.LBE7586:
.LBB7589:
.LBB7590:
	.loc 11 1749 0
	movl	604(%edx), %eax
	movl	608(%edx), %esi
.LVL942:
	andl	$7, %eax
	cmpl	$5, %eax
	jne	.L931
.LVL943:
.LBE7590:
.LBE7589:
.LBB7592:
.LBB7593:
.LBB7594:
	.loc 15 30 0
	movl	%esi, 536(%ebx)
.LVL944:
	movl	604(%edx), %eax
.LVL945:
.LBE7594:
.LBE7593:
.LBE7592:
.LBB7595:
.LBB7596:
	.loc 11 1777 0
	movl	%eax, %ebx
	andl	$7, %ebx
	cmpl	$5, %ebx
	jne	.L932
	.loc 11 1780 0
	andl	$524288, %eax
	shrl	$19, %eax
.LVL946:
.LBE7596:
.LBE7595:
.LBB7598:
.LBB7599:
	.loc 48 38 0
	testl	%ecx, %ecx
	je	.L927
	.loc 48 39 0
	movl	%eax, 12(%ecx)
.LVL947:
	movl	604(%edx), %eax
.LVL948:
.LBE7599:
.LBE7598:
.LBB7600:
.LBB7601:
	.loc 11 1763 0
	movl	%eax, %edx
.LVL949:
	andl	$7, %edx
	cmpl	$5, %edx
	jne	.L933
.LVL950:
.LBE7601:
.LBE7600:
.LBB7603:
.LBB7604:
	.loc 48 39 0
	shrl	$27, %eax
	movl	%eax, 16(%ecx)
.LBE7604:
.LBE7603:
	.loc 43 46 0
	addl	$4, %esp
	.cfi_remember_state
	.cfi_def_cfa_offset 12
.LBB7607:
.LBB7605:
	.loc 48 40 0
	movl	$4, %eax
.LVL951:
.LBE7605:
.LBE7607:
	.loc 43 46 0
	popl	%ebx
	.cfi_restore 3
	.cfi_def_cfa_offset 8
	popl	%esi
	.cfi_restore 6
	.cfi_def_cfa_offset 4
.LVL952:
	ret
.LVL953:
	.p2align 4,,10
	.p2align 3
.L927:
	.cfi_restore_state
	addl	$4, %esp
	.cfi_remember_state
	.cfi_def_cfa_offset 12
.LBB7608:
.LBB7606:
	.loc 48 42 0
	movl	$2, %eax
.LBE7606:
.LBE7608:
	.loc 43 46 0
	popl	%ebx
	.cfi_restore 3
	.cfi_def_cfa_offset 8
	popl	%esi
	.cfi_restore 6
	.cfi_def_cfa_offset 4
.LVL954:
	ret
.LVL955:
.L933:
	.cfi_restore_state
.LBB7609:
.LBB7602:
	call	seL4_Fault_VMFault_get_FSR.isra.164.part.165
.LVL956:
.L932:
.LBE7602:
.LBE7609:
.LBB7610:
.LBB7597:
	call	seL4_Fault_VMFault_get_instructionFault.isra.162.part.163
.LVL957:
.L931:
.LBE7597:
.LBE7610:
.LBB7611:
.LBB7591:
	call	seL4_Fault_VMFault_get_address.part.161
.LVL958:
.L928:
.LBE7591:
.LBE7611:
.LBB7612:
.LBB7613:
	.loc 43 44 0
	pushl	$__func__.6518
	.cfi_def_cfa_offset 20
	pushl	$44
	.cfi_def_cfa_offset 24
	pushl	$.LC134
	.cfi_def_cfa_offset 28
	pushl	$.LC135
	.cfi_def_cfa_offset 32
	call	_fail
.LVL959:
.LBE7613:
.LBE7612:
	.cfi_endproc
.LFE494:
	.size	Arch_setMRs_fault, .-Arch_setMRs_fault
	.section	.text.unlikely
.LCOLDE259:
	.text
.LHOTE259:
	.section	.rodata.str1.4
	.align 4
.LC260:
	.string	"/home/axjllt/Desktop/ori_refos/kernel/src/arch/x86/c_traps.c"
	.section	.text.unlikely
.LCOLDB261:
	.text
.LHOTB261:
	.p2align 4,,15
	.globl	c_nested_interrupt
	.type	c_nested_interrupt, @function
c_nested_interrupt:
.LFB496:
	.file 57 "/home/axjllt/Desktop/ori_refos/kernel/src/arch/x86/c_traps.c"
	.loc 57 26 0
	.cfi_startproc
.LVL960:
	subl	$12, %esp
	.cfi_def_cfa_offset 16
	.loc 57 30 0
	cmpl	$-1, x86KSPendingInterrupt
	jne	.L937
	.loc 57 31 0
	movl	16(%esp), %eax
	movl	%eax, x86KSPendingInterrupt
	.loc 57 32 0
	addl	$12, %esp
	.cfi_remember_state
	.cfi_def_cfa_offset 4
	ret
.L937:
	.cfi_restore_state
	.loc 57 30 0 discriminator 1
	pushl	$__FUNCTION__.6549
	.cfi_def_cfa_offset 20
	pushl	$30
	.cfi_def_cfa_offset 24
	pushl	$.LC260
	.cfi_def_cfa_offset 28
	pushl	$.LC173
	.cfi_def_cfa_offset 32
	call	_assert_fail
.LVL961:
	.cfi_endproc
.LFE496:
	.size	c_nested_interrupt, .-c_nested_interrupt
	.section	.text.unlikely
.LCOLDE261:
	.text
.LHOTE261:
	.section	.rodata.str1.4
	.align 4
.LC262:
	.string	"((asid_map.words[0] >> 0) & 0x3) == asid_map_asid_map_vspace"
	.section	.text.unlikely
.LCOLDB263:
.LHOTB263:
	.type	asid_map_asid_map_vspace_get_vspace_root.part.168, @function
asid_map_asid_map_vspace_get_vspace_root.part.168:
.LFB1063:
	.loc 11 1341 0
	.cfi_startproc
	subl	$12, %esp
	.cfi_def_cfa_offset 16
	.loc 11 1343 0
	pushl	$__FUNCTION__.1879
	.cfi_def_cfa_offset 20
	pushl	$1344
	.cfi_def_cfa_offset 24
	pushl	$.LC154
	.cfi_def_cfa_offset 28
	pushl	$.LC262
	.cfi_def_cfa_offset 32
	call	_assert_fail
.LVL962:
	.cfi_endproc
.LFE1063:
	.size	asid_map_asid_map_vspace_get_vspace_root.part.168, .-asid_map_asid_map_vspace_get_vspace_root.part.168
.LCOLDE263:
.LHOTE263:
.LCOLDB264:
	.text
.LHOTB264:
	.p2align 4,,15
	.globl	findVSpaceForASID
	.type	findVSpaceForASID, @function
findVSpaceForASID:
.LFB541:
	.loc 20 548 0
	.cfi_startproc
.LVL963:
	.loc 20 548 0
	movl	8(%esp), %edx
	movl	4(%esp), %eax
.LVL964:
.LBB7634:
.LBB7635:
	.loc 20 539 0
	movl	%edx, %ecx
	shrl	$10, %ecx
	movl	x86KSASIDTable(,%ecx,4), %ecx
.LVL965:
	.loc 20 540 0
	testl	%ecx, %ecx
	je	.L941
	.loc 20 544 0
	andl	$1023, %edx
	movl	(%ecx,%edx,4), %edx
.LVL966:
.LBE7635:
.LBE7634:
	.loc 20 553 0
	movl	%edx, %ecx
	andl	$3, %ecx
	cmpl	$1, %ecx
	je	.L942
.LVL967:
.L941:
.LBB7636:
.LBB7637:
	.loc 20 554 0
	movl	$0, current_lookup_fault
	movl	$0, current_lookup_fault+4
.LVL968:
	.loc 20 558 0
	movl	$2, (%eax)
	movl	$0, 4(%eax)
.LVL969:
	ret	$4
.LVL970:
	.p2align 4,,10
	.p2align 3
.L942:
.LBE7637:
.LBE7636:
	.loc 20 563 0
	andl	$-4096, %edx
.LVL971:
	movl	$0, (%eax)
	movl	%edx, 4(%eax)
.LVL972:
	.loc 20 564 0
	ret	$4
	.cfi_endproc
.LFE541:
	.size	findVSpaceForASID, .-findVSpaceForASID
	.section	.text.unlikely
.LCOLDE264:
	.text
.LHOTE264:
	.section	.text.unlikely
.LCOLDB265:
	.text
.LHOTB265:
	.p2align 4,,15
	.globl	setVMRoot
	.type	setVMRoot, @function
setVMRoot:
.LFB462:
	.loc 16 627 0
	.cfi_startproc
.LVL973:
	pushl	%edi
	.cfi_def_cfa_offset 8
	.cfi_offset 7, -8
	pushl	%esi
	.cfi_def_cfa_offset 12
	.cfi_offset 6, -12
	pushl	%ebx
	.cfi_def_cfa_offset 16
	.cfi_offset 3, -16
	subl	$24, %esp
	.cfi_def_cfa_offset 40
	.loc 16 633 0
	movl	40(%esp), %eax
	andl	$-1024, %eax
	movl	16(%eax), %esi
.LVL974:
	movl	20(%eax), %edi
	.loc 16 635 0
	pushl	%edi
	.cfi_def_cfa_offset 44
.LVL975:
	pushl	%esi
	.cfi_def_cfa_offset 48
	call	getValidNativeRoot
.LVL976:
	addl	$16, %esp
	.cfi_def_cfa_offset 32
.LVL977:
	.loc 16 636 0
	testl	%eax, %eax
	je	.L955
	movl	%esi, %edx
.LVL978:
	movl	%eax, %ebx
.LBB7664:
.LBB7665:
.LBB7666:
.LBB7667:
	.loc 11 2202 0
	andl	$14, %esi
.LVL979:
	.loc 11 2203 0
	movl	%edx, %eax
.LVL980:
	movzbl	%dl, %edx
	movl	%edi, %ecx
.LVL981:
	andl	$15, %eax
	cmpl	$14, %esi
	cmovne	%eax, %edx
.LBE7667:
.LBE7666:
	.loc 46 105 0
	cmpl	$5, %edx
	jne	.L960
.LVL982:
.LBB7668:
.LBB7669:
	.loc 11 3186 0
	cmpl	$5, %eax
	jne	.L964
.LBE7669:
.LBE7668:
.LBE7665:
.LBE7664:
	.loc 16 643 0
	leal	8(%esp), %eax
	andl	$16380, %ecx
	subl	$8, %esp
	.cfi_def_cfa_offset 40
	shrl	$2, %ecx
	pushl	%ecx
	.cfi_def_cfa_offset 44
	pushl	%eax
	.cfi_def_cfa_offset 48
	call	findVSpaceForASID
	.cfi_def_cfa_offset 44
.LVL983:
	movl	24(%esp), %eax
.LVL984:
	.loc 16 644 0
	addl	$12, %esp
	.cfi_def_cfa_offset 32
	movl	8(%esp), %edx
	testl	%edx, %edx
	je	.L965
.LVL985:
.L955:
.LBB7673:
.LBB7674:
	.loc 50 26 0
	movl	$ia32KSGlobalPD+536870912, ia32KSCurrentPD
.LBB7675:
.LBB7676:
	.loc 7 23 0
	movl	$ia32KSGlobalPD+536870912, %eax
#APP
# 23 "/home/axjllt/Desktop/ori_refos/kernel/include/arch/x86/arch/32/mode/machine/cpu_registers.h" 1
	movl %eax, %cr3
# 0 "" 2
#NO_APP
.L947:
.LBE7676:
.LBE7675:
.LBE7674:
.LBE7673:
	.loc 16 657 0
	addl	$16, %esp
	.cfi_remember_state
	.cfi_def_cfa_offset 16
	popl	%ebx
	.cfi_restore 3
	.cfi_def_cfa_offset 12
	popl	%esi
	.cfi_restore 6
	.cfi_def_cfa_offset 8
.LVL986:
	popl	%edi
	.cfi_restore 7
	.cfi_def_cfa_offset 4
	ret
.LVL987:
	.p2align 4,,10
	.p2align 3
.L965:
	.cfi_restore_state
	.loc 16 644 0 discriminator 1
	cmpl	%eax, %ebx
	jne	.L955
.LVL988:
.LBB7677:
.LBB7678:
	.file 58 "/home/axjllt/Desktop/ori_refos/kernel/include/machine.h"
	.loc 58 29 0
	addl	$536870912, %ebx
.LVL989:
.LBE7678:
.LBE7677:
	.loc 16 651 0
	cmpl	ia32KSCurrentPD, %ebx
	je	.L947
.LBB7679:
.LBB7680:
	.loc 50 26 0
	movl	%ebx, ia32KSCurrentPD
.LBB7681:
.LBB7682:
	.loc 7 23 0
#APP
# 23 "/home/axjllt/Desktop/ori_refos/kernel/include/arch/x86/arch/32/mode/machine/cpu_registers.h" 1
	movl %ebx, %cr3
# 0 "" 2
#NO_APP
	jmp	.L947
.LVL990:
.L964:
.LBE7682:
.LBE7681:
.LBE7680:
.LBE7679:
.LBB7683:
.LBB7672:
.LBB7671:
.LBB7670:
	call	cap_page_directory_cap_get_capPDMappedASID.part.139
.LVL991:
.L960:
.LBE7670:
.LBE7671:
	call	cap_get_capMappedASID.part.140
.LVL992:
.LBE7672:
.LBE7683:
	.cfi_endproc
.LFE462:
	.size	setVMRoot, .-setVMRoot
	.section	.text.unlikely
.LCOLDE265:
	.text
.LHOTE265:
	.section	.text.unlikely
.LCOLDB266:
	.text
.LHOTB266:
	.p2align 4,,15
	.globl	Arch_switchToThread
	.type	Arch_switchToThread, @function
Arch_switchToThread:
.LFB432:
	.loc 14 20 0
	.cfi_startproc
.LVL993:
	.loc 14 22 0
	jmp	setVMRoot
.LVL994:
	.cfi_endproc
.LFE432:
	.size	Arch_switchToThread, .-Arch_switchToThread
	.section	.text.unlikely
.LCOLDE266:
	.text
.LHOTE266:
	.section	.text.unlikely
.LCOLDB267:
	.text
.LHOTB267:
	.p2align 4,,15
	.globl	Arch_switchToIdleThread
	.type	Arch_switchToIdleThread, @function
Arch_switchToIdleThread:
.LFB434:
	.loc 14 40 0
	.cfi_startproc
	subl	$24, %esp
	.cfi_def_cfa_offset 28
	.loc 14 42 0
	pushl	ksIdleThread
	.cfi_def_cfa_offset 32
	call	setVMRoot
.LVL995:
	.loc 14 43 0
	addl	$28, %esp
	.cfi_def_cfa_offset 4
	ret
	.cfi_endproc
.LFE434:
	.size	Arch_switchToIdleThread, .-Arch_switchToIdleThread
	.section	.text.unlikely
.LCOLDE267:
	.text
.LHOTE267:
	.section	.text.unlikely
.LCOLDB268:
	.text
.LHOTB268:
	.p2align 4,,15
	.globl	switchToIdleThread
	.type	switchToIdleThread, @function
switchToIdleThread:
.LFB694:
	.loc 32 337 0
	.cfi_startproc
	subl	$24, %esp
	.cfi_def_cfa_offset 28
.LBB7684:
.LBB7685:
	.loc 14 42 0
	pushl	ksIdleThread
	.cfi_def_cfa_offset 32
	call	setVMRoot
.LVL996:
.LBE7685:
.LBE7684:
	.loc 32 342 0
	movl	ksIdleThread, %eax
	movl	%eax, ksCurThread
	.loc 32 343 0
	addl	$28, %esp
	.cfi_def_cfa_offset 4
	ret
	.cfi_endproc
.LFE694:
	.size	switchToIdleThread, .-switchToIdleThread
	.section	.text.unlikely
.LCOLDE268:
	.text
.LHOTE268:
	.section	.text.unlikely
.LCOLDB269:
	.text
.LHOTB269:
	.p2align 4,,15
	.globl	deleteASID
	.type	deleteASID, @function
deleteASID:
.LFB532:
	.loc 20 83 0
	.cfi_startproc
.LVL997:
	pushl	%ebx
	.cfi_def_cfa_offset 8
	.cfi_offset 3, -8
	.loc 20 83 0
	movl	8(%esp), %eax
	movl	12(%esp), %ecx
	.loc 20 86 0
	movl	%eax, %edx
	shrl	$10, %edx
	movl	x86KSASIDTable(,%edx,4), %edx
.LVL998:
	.loc 20 88 0
	testl	%edx, %edx
	je	.L971
.LBB7686:
	.loc 20 89 0
	andl	$1023, %eax
	leal	(%edx,%eax,4), %edx
.LVL999:
	movl	(%edx), %eax
.LVL1000:
	.loc 20 90 0
	movl	%eax, %ebx
	andl	$3, %ebx
	cmpl	$1, %ebx
	je	.L977
.LVL1001:
.L971:
.LBE7686:
	.loc 20 96 0
	popl	%ebx
	.cfi_remember_state
	.cfi_restore 3
	.cfi_def_cfa_offset 4
	ret
.LVL1002:
	.p2align 4,,10
	.p2align 3
.L977:
	.cfi_restore_state
.LBB7687:
	.loc 20 90 0
	andl	$-4096, %eax
.LVL1003:
	cmpl	%eax, %ecx
	jne	.L971
.LVL1004:
	.loc 20 93 0
	movl	ksCurThread, %eax
	.loc 20 92 0
	movl	$0, (%edx)
.LVL1005:
	.loc 20 93 0
	movl	%eax, 8(%esp)
.LVL1006:
.LBE7687:
	.loc 20 96 0
	popl	%ebx
	.cfi_restore 3
	.cfi_def_cfa_offset 4
.LBB7688:
	.loc 20 93 0
	jmp	setVMRoot
.LVL1007:
.LBE7688:
	.cfi_endproc
.LFE532:
	.size	deleteASID, .-deleteASID
	.section	.text.unlikely
.LCOLDE269:
	.text
.LHOTE269:
	.section	.text.unlikely
.LCOLDB270:
	.text
.LHOTB270:
	.p2align 4,,15
	.globl	unmapPageDirectory
	.type	unmapPageDirectory, @function
unmapPageDirectory:
.LFB479:
	.loc 17 228 0
	.cfi_startproc
.LVL1008:
	.loc 17 229 0
	movl	12(%esp), %eax
	movl	%eax, 8(%esp)
.LVL1009:
	jmp	deleteASID
.LVL1010:
	.cfi_endproc
.LFE479:
	.size	unmapPageDirectory, .-unmapPageDirectory
	.section	.text.unlikely
.LCOLDE270:
	.text
.LHOTE270:
	.section	.text.unlikely
.LCOLDB271:
.LHOTB271:
	.type	cap_untyped_cap_get_capBlockSize.part.171, @function
cap_untyped_cap_get_capBlockSize.part.171:
.LFB1066:
	.loc 11 2304 0
	.cfi_startproc
	subl	$12, %esp
	.cfi_def_cfa_offset 16
	.loc 11 2306 0
	pushl	$__FUNCTION__.2281
	.cfi_def_cfa_offset 20
	pushl	$2307
	.cfi_def_cfa_offset 24
	pushl	$.LC154
	.cfi_def_cfa_offset 28
	pushl	$.LC208
	.cfi_def_cfa_offset 32
	call	_assert_fail
.LVL1011:
	.cfi_endproc
.LFE1066:
	.size	cap_untyped_cap_get_capBlockSize.part.171, .-cap_untyped_cap_get_capBlockSize.part.171
.LCOLDE271:
.LHOTE271:
	.section	.rodata.str1.4
	.align 4
.LC272:
	.string	"((cap_ptr->words[0] >> 0) & 0xf) == cap_untyped_cap"
	.section	.text.unlikely
.LCOLDB273:
.LHOTB273:
	.type	cap_untyped_cap_ptr_set_capFreeIndex.part.172, @function
cap_untyped_cap_ptr_set_capFreeIndex.part.172:
.LFB1067:
	.loc 11 2277 0
	.cfi_startproc
.LVL1012:
	subl	$12, %esp
	.cfi_def_cfa_offset 16
	.loc 11 2279 0
	pushl	$__FUNCTION__.2271
	.cfi_def_cfa_offset 20
	pushl	$2280
	.cfi_def_cfa_offset 24
	pushl	$.LC154
	.cfi_def_cfa_offset 28
	pushl	$.LC272
	.cfi_def_cfa_offset 32
	call	_assert_fail
.LVL1013:
	.cfi_endproc
.LFE1067:
	.size	cap_untyped_cap_ptr_set_capFreeIndex.part.172, .-cap_untyped_cap_ptr_set_capFreeIndex.part.172
.LCOLDE273:
.LHOTE273:
	.section	.rodata.str1.4
	.align 4
.LC274:
	.string	"(capASIDBase & ~0xfffu) == ((0 && (capASIDBase & (1u << 31))) ? 0x0 : 0)"
	.section	.text.unlikely
.LCOLDB275:
.LHOTB275:
	.type	cap_asid_pool_cap_new.part.173, @function
cap_asid_pool_cap_new.part.173:
.LFB1068:
	.loc 11 3253 0
	.cfi_startproc
.LVL1014:
	subl	$12, %esp
	.cfi_def_cfa_offset 16
	.loc 11 3257 0
	pushl	$__FUNCTION__.2637
	.cfi_def_cfa_offset 20
	pushl	$3257
	.cfi_def_cfa_offset 24
	pushl	$.LC154
	.cfi_def_cfa_offset 28
	pushl	$.LC274
	.cfi_def_cfa_offset 32
	call	_assert_fail
.LVL1015:
	.cfi_endproc
.LFE1068:
	.size	cap_asid_pool_cap_new.part.173, .-cap_asid_pool_cap_new.part.173
.LCOLDE275:
.LHOTE275:
.LCOLDB276:
.LHOTB276:
	.type	cap_frame_cap_get_capFVMRights.isra.174.part.175, @function
cap_frame_cap_get_capFVMRights.isra.174.part.175:
.LFB1070:
	.loc 11 2968 0
	.cfi_startproc
	subl	$12, %esp
	.cfi_def_cfa_offset 16
	.loc 11 2970 0
	pushl	$__FUNCTION__.2530
	.cfi_def_cfa_offset 20
	pushl	$2971
	.cfi_def_cfa_offset 24
	pushl	$.LC154
	.cfi_def_cfa_offset 28
	pushl	$.LC216
	.cfi_def_cfa_offset 32
	call	_assert_fail
.LVL1016:
	.cfi_endproc
.LFE1070:
	.size	cap_frame_cap_get_capFVMRights.isra.174.part.175, .-cap_frame_cap_get_capFVMRights.isra.174.part.175
.LCOLDE276:
.LHOTE276:
.LCOLDB277:
	.text
.LHOTB277:
	.p2align 4,,15
	.globl	lookupIPCBuffer
	.type	lookupIPCBuffer, @function
lookupIPCBuffer:
.LFB533:
	.loc 20 99 0
	.cfi_startproc
.LVL1017:
	pushl	%edi
	.cfi_def_cfa_offset 8
	.cfi_offset 7, -8
	pushl	%esi
	.cfi_def_cfa_offset 12
	.cfi_offset 6, -12
	pushl	%ebx
	.cfi_def_cfa_offset 16
	.cfi_offset 3, -16
	.loc 20 99 0
	movl	20(%esp), %ecx
	.loc 20 104 0
	movl	640(%ecx), %ebx
.LVL1018:
	.loc 20 105 0
	andl	$-1024, %ecx
	movl	64(%ecx), %edx
	movl	68(%ecx), %esi
.LVL1019:
.LBB7702:
.LBB7703:
	.loc 11 2202 0
	movl	%edx, %edi
	.loc 11 2203 0
	movl	%edx, %ecx
	movzbl	%dl, %eax
	.loc 11 2202 0
	andl	$14, %edi
	.loc 11 2203 0
	andl	$15, %ecx
	cmpl	$14, %edi
	cmovne	%ecx, %eax
.LVL1020:
.LBE7703:
.LBE7702:
	.loc 20 107 0
	cmpl	$1, %eax
	jne	.L996
.LVL1021:
.LBB7704:
.LBB7705:
	.loc 11 2970 0
	cmpl	$1, %ecx
	jne	.L1008
	.loc 11 2973 0
	movl	%edx, %eax
	andl	$50331648, %eax
	shrl	$24, %eax
.LVL1022:
.LBE7705:
.LBE7704:
	.loc 20 112 0
	cmpl	$3, %eax
	je	.L992
	.loc 20 112 0 is_stmt 0 discriminator 1
	movl	16(%esp), %ecx
	testl	%ecx, %ecx
	jne	.L996
	cmpl	$2, %eax
	jne	.L996
.L992:
.LVL1023:
.LBB7707:
.LBB7708:
.LBB7709:
	.file 59 "/home/axjllt/Desktop/ori_refos/kernel/include/arch/x86/arch/machine/hardware.h"
	.loc 59 57 0 is_stmt 1
	andl	$1073741824, %esi
.LVL1024:
	movl	$4095, %eax
	movl	$4194303, %ecx
	cmovne	%ecx, %eax
.LBE7709:
.LBE7708:
	.loc 20 118 0
	andl	$16777200, %edx
.LVL1025:
	sall	$8, %edx
	andl	%ebx, %eax
.LBE7707:
	.loc 20 122 0
	popl	%ebx
	.cfi_remember_state
	.cfi_restore 3
	.cfi_def_cfa_offset 12
.LVL1026:
.LBB7710:
	.loc 20 118 0
	addl	%edx, %eax
.LVL1027:
.LBE7710:
	.loc 20 122 0
	popl	%esi
	.cfi_restore 6
	.cfi_def_cfa_offset 8
	popl	%edi
	.cfi_restore 7
	.cfi_def_cfa_offset 4
	ret
.LVL1028:
	.p2align 4,,10
	.p2align 3
.L996:
	.cfi_restore_state
	popl	%ebx
	.cfi_remember_state
	.cfi_restore 3
	.cfi_def_cfa_offset 12
.LVL1029:
	.loc 20 108 0
	xorl	%eax, %eax
.LVL1030:
	.loc 20 122 0
	popl	%esi
	.cfi_restore 6
	.cfi_def_cfa_offset 8
	popl	%edi
	.cfi_restore 7
	.cfi_def_cfa_offset 4
	ret
.LVL1031:
.L1008:
	.cfi_restore_state
.LBB7711:
.LBB7706:
	call	cap_frame_cap_get_capFVMRights.isra.174.part.175
.LVL1032:
.LBE7706:
.LBE7711:
	.cfi_endproc
.LFE533:
	.size	lookupIPCBuffer, .-lookupIPCBuffer
	.section	.text.unlikely
.LCOLDE277:
	.text
.LHOTE277:
	.section	.text.unlikely
.LCOLDB278:
	.text
.LHOTB278:
	.p2align 4,,15
	.globl	handleFaultReply
	.type	handleFaultReply, @function
handleFaultReply:
.LFB389:
	.loc 47 120 0
	.cfi_startproc
.LVL1033:
	pushl	%ebp
	.cfi_def_cfa_offset 8
	.cfi_offset 5, -8
	pushl	%edi
	.cfi_def_cfa_offset 12
	.cfi_offset 7, -12
	pushl	%esi
	.cfi_def_cfa_offset 16
	.cfi_offset 6, -16
	pushl	%ebx
	.cfi_def_cfa_offset 20
	.cfi_offset 3, -20
	subl	$28, %esp
	.cfi_def_cfa_offset 48
	.loc 47 120 0
	movl	52(%esp), %edx
	movl	48(%esp), %ebx
.LVL1034:
.LBB7766:
.LBB7767:
	.loc 15 36 0
	movl	528(%edx), %ecx
.LVL1035:
.LBE7767:
.LBE7766:
.LBB7768:
.LBB7769:
	.loc 34 89 0
	movl	%ecx, %esi
	andl	$127, %esi
	cmpl	$120, %esi
	jbe	.L1010
.LVL1036:
.LBB7770:
.LBB7771:
	.file 60 "32/mode/api/shared_types_gen.h"
	.loc 60 125 0
	andl	$-128, %ecx
.LVL1037:
	movl	$120, %esi
	.loc 60 126 0
	orl	$120, %ecx
.LVL1038:
.L1010:
.LBE7771:
.LBE7770:
.LBE7769:
.LBE7768:
.LBB7772:
.LBB7773:
	.loc 11 1586 0
	movl	604(%ebx), %eax
.LBE7773:
.LBE7772:
.LBB7775:
.LBB7776:
	.loc 60 62 0
	shrl	$12, %ecx
.LVL1039:
	movl	%ecx, 12(%esp)
.LVL1040:
.LBE7776:
.LBE7775:
.LBB7777:
.LBB7774:
	.loc 11 1586 0
	andl	$7, %eax
.LBE7774:
.LBE7777:
	.loc 47 127 0
	cmpl	$2, %eax
	je	.L1012
	cmpl	$3, %eax
	je	.L1013
	cmpl	$1, %eax
	je	.L1034
.LVL1041:
.LBB7778:
.LBB7779:
	.loc 43 21 0
	cmpl	$5, %eax
	jne	.L1047
.LVL1042:
.L1034:
.LBE7779:
.LBE7778:
	.loc 47 189 0
	addl	$28, %esp
	.cfi_remember_state
	.cfi_def_cfa_offset 20
	.loc 47 187 0
	movl	$1, %eax
.LVL1043:
	.loc 47 189 0
	popl	%ebx
	.cfi_restore 3
	.cfi_def_cfa_offset 16
	popl	%esi
	.cfi_restore 6
	.cfi_def_cfa_offset 12
	popl	%edi
	.cfi_restore 7
	.cfi_def_cfa_offset 8
	popl	%ebp
	.cfi_restore 5
	.cfi_def_cfa_offset 4
	ret
.LVL1044:
	.p2align 4,,10
	.p2align 3
.L1013:
	.cfi_restore_state
	.loc 47 136 0
	cmpl	$3, %esi
	cmova	%eax, %esi
.LVL1045:
.LBB7781:
.LBB7782:
	.loc 47 84 0
	movl	$2, %eax
	cmpl	$2, %esi
	cmovbe	%esi, %eax
	xorl	%edi, %edi
	testl	%eax, %eax
	je	.L1021
.LVL1046:
.LBB7783:
.LBB7784:
.LBB7785:
	.loc 15 30 0
	movl	532(%edx), %ecx
.LBE7785:
.LBE7784:
.LBE7783:
	.loc 47 84 0
	movl	$1, %edi
.LBB7790:
.LBB7788:
.LBB7786:
	.loc 15 30 0
	movl	%ecx, 556(%ebx)
.LVL1047:
.LBE7786:
.LBE7788:
.LBE7790:
	.loc 47 84 0
	cmpl	$2, %eax
	jne	.L1021
.LVL1048:
.LBB7791:
.LBB7789:
.LBB7787:
	.loc 15 30 0
	movl	536(%edx), %eax
	movl	$2, %edi
	movl	%eax, 580(%ebx)
.LVL1049:
.L1021:
.LBE7787:
.LBE7789:
.LBE7791:
	.loc 47 90 0
	cmpl	%edi, %esi
	jbe	.L1023
.LBB7792:
	.loc 47 91 0
	subl	$8, %esp
	.cfi_def_cfa_offset 56
	pushl	%edx
	.cfi_def_cfa_offset 60
	pushl	$0
	.cfi_def_cfa_offset 64
	call	lookupIPCBuffer
.LVL1050:
	addl	$16, %esp
	.cfi_def_cfa_offset 48
.LVL1051:
	.loc 47 92 0
	testl	%eax, %eax
	je	.L1023
	leal	40(,%edi,4), %edx
	leal	-40(%eax,%edx), %ecx
	leal	fault_messages(%edx), %edi
	movl	%ecx, 8(%esp)
	leal	(%eax,%esi,4), %ebp
	jmp	.L1026
.LVL1052:
	.p2align 4,,10
	.p2align 3
.L1024:
.LBB7793:
.LBB7794:
.LBB7795:
	.loc 26 37 0
	cmpl	$16, %esi
	jne	.L1025
.LVL1053:
	andl	$3799, %eax
.LVL1054:
	.loc 26 45 0
	orl	$514, %eax
.LVL1055:
.L1025:
	addl	$4, 8(%esp)
.LBE7795:
.LBE7794:
.LBB7802:
.LBB7803:
	.loc 15 30 0
	movl	%eax, 512(%ebx,%esi,4)
.LVL1056:
	addl	$4, %edi
	movl	8(%esp), %eax
.LBE7803:
.LBE7802:
.LBE7793:
	.loc 47 93 0
	cmpl	%ebp, %eax
	je	.L1023
.LVL1057:
.L1026:
.LBB7806:
	.loc 47 94 0
	movl	(%edi), %esi
.LVL1058:
	.loc 47 95 0
	movl	8(%esp), %eax
.LBB7804:
.LBB7800:
.LBB7796:
.LBB7797:
	.loc 5 48 0
	leal	-9(%esi), %edx
.LBE7797:
.LBE7796:
.LBE7800:
.LBE7804:
	.loc 47 95 0
	movl	4(%eax), %eax
.LVL1059:
.LBB7805:
.LBB7801:
.LBB7799:
.LBB7798:
	.loc 5 48 0
	cmpl	$1, %edx
	ja	.L1024
	call	Mode_sanitiseRegister.part.55
.LVL1060:
	jmp	.L1025
.LVL1061:
	.p2align 4,,10
	.p2align 3
.L1012:
.LBE7798:
.LBE7799:
.LBE7801:
.LBE7805:
.LBE7806:
.LBE7792:
.LBE7782:
.LBE7781:
	.loc 47 132 0
	cmpl	$10, %esi
	movl	$10, %ecx
	cmova	%ecx, %esi
.LVL1062:
.LBB7807:
.LBB7808:
	.loc 47 84 0
	cmpl	$2, %esi
	cmovbe	%esi, %eax
	xorl	%edi, %edi
	testl	%eax, %eax
	je	.L1015
.LVL1063:
.LBB7809:
.LBB7810:
.LBB7811:
	.loc 15 30 0
	movl	532(%edx), %ecx
.LBE7811:
.LBE7810:
.LBE7809:
	.loc 47 84 0
	movl	$1, %edi
.LBB7816:
.LBB7814:
.LBB7812:
	.loc 15 30 0
	movl	%ecx, 512(%ebx)
.LVL1064:
.LBE7812:
.LBE7814:
.LBE7816:
	.loc 47 84 0
	cmpl	$2, %eax
	jne	.L1015
.LVL1065:
.LBB7817:
.LBB7815:
.LBB7813:
	.loc 15 30 0
	movl	536(%edx), %eax
	movl	$2, %edi
	movl	%eax, 516(%ebx)
.LVL1066:
.L1015:
.LBE7813:
.LBE7815:
.LBE7817:
	.loc 47 90 0
	cmpl	%edi, %esi
	ja	.L1048
.LVL1067:
.L1023:
.LBE7808:
.LBE7807:
	.loc 47 137 0
	movl	12(%esp), %edx
	xorl	%eax, %eax
	testl	%edx, %edx
	sete	%al
	.loc 47 189 0
	addl	$28, %esp
	.cfi_remember_state
	.cfi_def_cfa_offset 20
	popl	%ebx
	.cfi_restore 3
	.cfi_def_cfa_offset 16
	popl	%esi
	.cfi_restore 6
	.cfi_def_cfa_offset 12
	popl	%edi
	.cfi_restore 7
	.cfi_def_cfa_offset 8
	popl	%ebp
	.cfi_restore 5
	.cfi_def_cfa_offset 4
	ret
.LVL1068:
	.p2align 4,,10
	.p2align 3
.L1048:
	.cfi_restore_state
.LBB7830:
.LBB7829:
.LBB7818:
	.loc 47 91 0
	subl	$8, %esp
	.cfi_def_cfa_offset 56
	pushl	%edx
	.cfi_def_cfa_offset 60
	pushl	$0
	.cfi_def_cfa_offset 64
	call	lookupIPCBuffer
.LVL1069:
	addl	$16, %esp
	.cfi_def_cfa_offset 48
.LVL1070:
	.loc 47 92 0
	testl	%eax, %eax
	je	.L1023
	leal	fault_messages(,%esi,4), %ebp
	sall	$2, %edi
	leal	fault_messages(%edi), %ecx
	movl	%ecx, 8(%esp)
	leal	4(%eax,%edi), %edi
	jmp	.L1020
.LVL1071:
	.p2align 4,,10
	.p2align 3
.L1018:
.LBB7819:
.LBB7820:
.LBB7821:
	.loc 26 37 0
	cmpl	$16, %esi
	jne	.L1019
.LVL1072:
	andl	$3799, %eax
.LVL1073:
	.loc 26 45 0
	orl	$514, %eax
.LVL1074:
.L1019:
	addl	$4, 8(%esp)
.LBE7821:
.LBE7820:
.LBB7825:
.LBB7826:
	.loc 15 30 0
	movl	%eax, 512(%ebx,%esi,4)
.LVL1075:
	addl	$4, %edi
	movl	8(%esp), %eax
.LBE7826:
.LBE7825:
.LBE7819:
	.loc 47 93 0
	cmpl	%ebp, %eax
	je	.L1023
.LVL1076:
.L1020:
.LBB7828:
	.loc 47 94 0
	movl	8(%esp), %eax
	movl	(%eax), %esi
.LVL1077:
	.loc 47 95 0
	movl	(%edi), %eax
.LVL1078:
.LBB7827:
.LBB7824:
.LBB7822:
.LBB7823:
	.loc 5 48 0
	leal	-9(%esi), %edx
	cmpl	$1, %edx
	ja	.L1018
	call	Mode_sanitiseRegister.part.55
.LVL1079:
	jmp	.L1019
.LVL1080:
.L1047:
.LBE7823:
.LBE7822:
.LBE7824:
.LBE7827:
.LBE7828:
.LBE7818:
.LBE7829:
.LBE7830:
.LBB7831:
.LBB7780:
	call	Arch_handleFaultReply.part.60
.LVL1081:
.LBE7780:
.LBE7831:
	.cfi_endproc
.LFE389:
	.size	handleFaultReply, .-handleFaultReply
	.section	.text.unlikely
.LCOLDE278:
	.text
.LHOTE278:
	.section	.rodata.str1.4
	.align 4
.LC279:
	.string	"(FSR & ~0x1fu) == ((0 && (FSR & (1u << 31))) ? 0x0 : 0)"
	.section	.text.unlikely
.LCOLDB280:
.LHOTB280:
	.type	seL4_Fault_VMFault_new.part.176, @function
seL4_Fault_VMFault_new.part.176:
.LFB1071:
	.loc 11 1728 0
	.cfi_startproc
.LVL1082:
	subl	$12, %esp
	.cfi_def_cfa_offset 16
	.loc 11 1732 0
	pushl	$__FUNCTION__.2043
	.cfi_def_cfa_offset 20
	pushl	$1732
	.cfi_def_cfa_offset 24
	pushl	$.LC154
	.cfi_def_cfa_offset 28
	pushl	$.LC279
	.cfi_def_cfa_offset 32
	call	_assert_fail
.LVL1083:
	.cfi_endproc
.LFE1071:
	.size	seL4_Fault_VMFault_new.part.176, .-seL4_Fault_VMFault_new.part.176
.LCOLDE280:
.LHOTE280:
.LCOLDB281:
.LHOTB281:
	.type	pde_pde_pt_ptr_get_present.part.178, @function
pde_pde_pt_ptr_get_present.part.178:
.LFB1073:
	.loc 11 2026 0
	.cfi_startproc
.LVL1084:
	subl	$12, %esp
	.cfi_def_cfa_offset 16
	.loc 11 2028 0
	pushl	$__FUNCTION__.2162
	.cfi_def_cfa_offset 20
	pushl	$2029
	.cfi_def_cfa_offset 24
	pushl	$.LC154
	.cfi_def_cfa_offset 28
	pushl	$.LC237
	.cfi_def_cfa_offset 32
	call	_assert_fail
.LVL1085:
	.cfi_endproc
.LFE1073:
	.size	pde_pde_pt_ptr_get_present.part.178, .-pde_pde_pt_ptr_get_present.part.178
.LCOLDE281:
.LHOTE281:
.LCOLDB282:
	.text
.LHOTB282:
	.p2align 4,,15
	.globl	lookupPTSlot
	.type	lookupPTSlot, @function
lookupPTSlot:
.LFB545:
	.loc 20 619 0
	.cfi_startproc
.LVL1086:
	pushl	%ebx
	.cfi_def_cfa_offset 8
	.cfi_offset 3, -8
	subl	$8, %esp
	.cfi_def_cfa_offset 16
	.loc 20 619 0
	movl	24(%esp), %ecx
.LBB7858:
.LBB7859:
	.loc 11 1937 0
	movl	20(%esp), %edx
.LBE7859:
.LBE7858:
	.loc 20 619 0
	movl	16(%esp), %eax
.LVL1087:
.LBB7861:
.LBB7860:
	.loc 11 1937 0
	movl	%ecx, %ebx
	shrl	$22, %ebx
	movl	(%edx,%ebx,4), %edx
.LVL1088:
.LBE7860:
.LBE7861:
	.loc 20 629 0
	testb	$-128, %dl
	jne	.L1054
.LVL1089:
.LBB7862:
.LBB7863:
	.loc 11 2028 0 discriminator 1
	jne	.L1059
.LVL1090:
.LBE7863:
.LBE7862:
	.loc 20 629 0
	testb	$1, %dl
	je	.L1054
.LVL1091:
.LBB7865:
	.loc 20 646 0
	shrl	$10, %ecx
.LVL1092:
	andl	$-4096, %edx
.LVL1093:
	movl	$0, (%eax)
	andl	$4092, %ecx
	leal	-536870912(%edx,%ecx), %edx
	movl	%edx, 4(%eax)
.LVL1094:
.LBE7865:
	.loc 20 648 0
	addl	$8, %esp
	.cfi_remember_state
	.cfi_def_cfa_offset 8
	popl	%ebx
	.cfi_restore 3
	.cfi_def_cfa_offset 4
.LVL1095:
	ret	$4
.LVL1096:
	.p2align 4,,10
	.p2align 3
.L1054:
	.cfi_restore_state
.LBB7866:
.LBB7867:
	.loc 20 634 0
	movl	$2, (%eax)
	movl	$0, 4(%eax)
	.loc 20 631 0
	movl	$89, current_lookup_fault
	movl	$0, current_lookup_fault+4
.LVL1097:
.LBE7867:
.LBE7866:
	.loc 20 648 0
	addl	$8, %esp
	.cfi_remember_state
	.cfi_def_cfa_offset 8
	popl	%ebx
	.cfi_restore 3
	.cfi_def_cfa_offset 4
	ret	$4
.LVL1098:
.L1059:
	.cfi_restore_state
.LBB7868:
.LBB7864:
	call	pde_pde_pt_ptr_get_present.part.178
.LVL1099:
.LBE7864:
.LBE7868:
	.cfi_endproc
.LFE545:
	.size	lookupPTSlot, .-lookupPTSlot
	.section	.text.unlikely
.LCOLDE282:
	.text
.LHOTE282:
	.section	.rodata.str1.4
	.align 4
.LC283:
	.string	"IS_ALIGNED(vptr, PT_INDEX_BITS + PAGE_BITS)"
	.section	.text.unlikely
.LCOLDB284:
	.text
.LHOTB284:
	.p2align 4,,15
	.globl	flushTable
	.type	flushTable, @function
flushTable:
.LFB548:
	.loc 20 688 0
	.cfi_startproc
.LVL1100:
	pushl	%ebp
	.cfi_def_cfa_offset 8
	.cfi_offset 5, -8
	pushl	%edi
	.cfi_def_cfa_offset 12
	.cfi_offset 7, -12
	pushl	%esi
	.cfi_def_cfa_offset 16
	.cfi_offset 6, -16
	pushl	%ebx
	.cfi_def_cfa_offset 20
	.cfi_offset 3, -20
	subl	$60, %esp
	.cfi_def_cfa_offset 80
	.loc 20 688 0
	movl	88(%esp), %ebx
	.loc 20 692 0
	testl	$4194303, 84(%esp)
	jne	.L1109
	.loc 20 695 0
	movl	ksCurThread, %eax
	andl	$-1024, %eax
	movl	16(%eax), %esi
.LVL1101:
	movl	20(%eax), %edi
.LVL1102:
.LBB7921:
.LBB7922:
.LBB7923:
.LBB7924:
	.loc 11 2202 0
	movl	%esi, %edx
	movl	%esi, %eax
	andl	$14, %edx
	.loc 11 2204 0
	movzbl	%al, %ecx
.LBE7924:
.LBE7923:
.LBB7928:
.LBB7929:
	.loc 55 287 0
	andl	$268435200, %eax
.LBE7929:
.LBE7928:
.LBB7954:
.LBB7925:
	.loc 11 2202 0
	movl	%edx, 4(%esp)
.LBE7925:
.LBE7954:
	.loc 54 389 0
	movl	%esi, %edx
.LBB7955:
.LBB7946:
	.loc 55 287 0
	sall	$4, %eax
.LBE7946:
.LBE7955:
	.loc 54 389 0
	andl	$-16, %edx
.LBB7956:
.LBB7926:
	.loc 11 2204 0
	movl	%ecx, 12(%esp)
	movl	%esi, %ecx
.LBE7926:
.LBE7956:
	.loc 54 389 0
	movl	%edx, 16(%esp)
	.loc 54 392 0
	movl	%edi, %edx
	andl	$15, %ecx
	andl	$-16, %edx
	movl	%ecx, 8(%esp)
.LBB7957:
.LBB7947:
	.loc 55 271 0
	movl	%esi, %ecx
.LBE7947:
.LBE7957:
	.loc 54 392 0
	movl	%edx, 20(%esp)
	.loc 54 398 0
	movl	%esi, %edx
.LBB7958:
.LBB7948:
	.loc 55 271 0
	andl	$16777200, %ecx
.LBE7948:
.LBE7958:
	.loc 54 398 0
	andl	$-32, %edx
.LBB7959:
.LBB7949:
	.loc 55 287 0
	movl	%eax, 44(%esp)
	.loc 55 271 0
	sall	$8, %ecx
.LBE7949:
.LBE7959:
	.loc 54 398 0
	movl	%edx, 24(%esp)
	.loc 54 401 0
	movl	%esi, %edx
	andl	$-1024, %edx
.LBB7960:
.LBB7950:
	.loc 55 271 0
	movl	%ecx, 36(%esp)
.LBE7950:
.LBE7960:
	.loc 54 401 0
	movl	%edx, 28(%esp)
.LBB7961:
.LBB7962:
.LBB7963:
.LBB7964:
.LBB7965:
.LBB7966:
	.loc 11 3437 0
	movl	%esi, %edx
	andl	$16128, %edx
	shrl	$8, %edx
.LBE7966:
.LBE7965:
.LBE7964:
.LBE7963:
.LBE7962:
.LBE7961:
	.loc 54 404 0
	movl	%edx, %eax
	andl	$31, %eax
	movl	%eax, %ecx
	movl	$-1, %eax
	addl	$1, %ecx
	sall	%cl, %eax
	cmpl	$32, %edx
	movl	$-32, %edx
	movl	8(%esp), %ecx
	cmove	%edx, %eax
	andl	%edi, %eax
	cmpl	$14, 4(%esp)
	cmove	12(%esp), %ecx
	movl	%eax, 40(%esp)
.LBE7922:
.LBE7921:
	.loc 20 697 0
	xorl	%ebp, %ebp
	movl	%ecx, 32(%esp)
.LVL1103:
	.p2align 4,,10
	.p2align 3
.L1085:
	.loc 20 698 0
	testb	$1, (%ebx,%ebp,4)
	je	.L1062
	.loc 20 699 0
	subl	$8, %esp
	.cfi_def_cfa_offset 88
	pushl	%edi
	.cfi_def_cfa_offset 92
.LVL1104:
	pushl	%esi
	.cfi_def_cfa_offset 96
	call	isValidNativeRoot
.LVL1105:
	addl	$16, %esp
	.cfi_def_cfa_offset 80
	testl	%eax, %eax
	je	.L1062
.LVL1106:
.LBB7993:
.LBB7989:
.LBB7967:
.LBB7927:
	.loc 11 2202 0 discriminator 1
	cmpl	$14, 4(%esp)
	je	.L1063
.LVL1107:
.LBE7927:
.LBE7967:
	.loc 54 387 0
	movl	8(%esp), %eax
	cmpl	$14, %eax
	ja	.L1064
	jmp	*.L1066(,%eax,4)
	.section	.rodata
	.align 4
	.align 4
.L1066:
	.long	.L1064
	.long	.L1064
	.long	.L1090
	.long	.L1064
	.long	.L1067
	.long	.L1064
	.long	.L1090
	.long	.L1064
	.long	.L1093
	.long	.L1064
	.long	.L1069
	.long	.L1064
	.long	.L1070
	.long	.L1064
	.long	.L1093
	.text
.L1074:
.LVL1108:
.LBB7968:
.LBB7969:
	.loc 11 2576 0
	cmpl	$6, 8(%esp)
	jne	.L1110
.LVL1109:
	.p2align 4,,10
	.p2align 3
.L1090:
.LBE7969:
.LBE7968:
	.loc 54 395 0
	movl	16(%esp), %eax
.L1065:
.LVL1110:
.LBE7989:
.LBE7993:
	.loc 20 699 0
	cmpl	%eax, 80(%esp)
	je	.L1111
.LVL1111:
	.p2align 4,,10
	.p2align 3
.L1062:
	.loc 20 697 0 discriminator 2
	addl	$1, %ebp
.LVL1112:
	cmpl	$1024, %ebp
	jne	.L1085
	.loc 20 705 0
	addl	$60, %esp
	.cfi_remember_state
	.cfi_def_cfa_offset 20
	popl	%ebx
	.cfi_restore 3
	.cfi_def_cfa_offset 16
	popl	%esi
	.cfi_restore 6
	.cfi_def_cfa_offset 12
.LVL1113:
	popl	%edi
	.cfi_restore 7
	.cfi_def_cfa_offset 8
	popl	%ebp
	.cfi_restore 5
	.cfi_def_cfa_offset 4
.LVL1114:
	ret
.LVL1115:
	.p2align 4,,10
	.p2align 3
.L1093:
	.cfi_restore_state
.LBB7994:
.LBB7990:
.LBB7971:
.LBB7951:
	.loc 55 280 0
	xorl	%eax, %eax
.LVL1116:
.LBE7951:
.LBE7971:
.LBE7990:
.LBE7994:
	.loc 20 699 0
	cmpl	%eax, 80(%esp)
	jne	.L1062
	.p2align 4,,10
	.p2align 3
.L1111:
.LVL1117:
.LBB7995:
.LBB7996:
.LBB7997:
.LBB7998:
	.loc 50 45 0
	movl	%ebp, %eax
	sall	$12, %eax
	addl	84(%esp), %eax
#APP
# 45 "/home/axjllt/Desktop/ori_refos/kernel/include/arch/x86/arch/32/mode/machine.h" 1
	invlpg (%eax)
# 0 "" 2
.LVL1118:
#NO_APP
	jmp	.L1062
.LVL1119:
.L1077:
.LBE7998:
.LBE7997:
.LBE7996:
.LBE7995:
.LBB7999:
.LBB7991:
.LBB7972:
.LBB7973:
	.loc 11 2768 0
	cmpl	$12, 8(%esp)
	jne	.L1112
.LVL1120:
.L1070:
.LBE7973:
.LBE7972:
	.loc 54 401 0
	movl	28(%esp), %eax
	jmp	.L1065
.LVL1121:
.L1073:
.LBB7975:
.LBB7976:
	.loc 11 2358 0
	cmpl	$4, 8(%esp)
	jne	.L1113
.LVL1122:
.L1067:
.LBE7976:
.LBE7975:
	.loc 54 392 0
	movl	20(%esp), %eax
	jmp	.L1065
.LVL1123:
.L1076:
.LBB7978:
.LBB7979:
	.loc 11 2738 0
	cmpl	$10, 8(%esp)
	jne	.L1114
.LVL1124:
.L1069:
.LBE7979:
.LBE7978:
	.loc 54 398 0
	movl	24(%esp), %eax
	jmp	.L1065
.LVL1125:
	.p2align 4,,10
	.p2align 3
.L1064:
.LBB7981:
.LBB7952:
	.loc 55 268 0
	movl	32(%esp), %eax
	cmpl	$31, %eax
	ja	.L1078
	jmp	*.L1080(,%eax,4)
	.section	.rodata
	.align 4
	.align 4
.L1080:
	.long	.L1078
	.long	.L1079
	.long	.L1078
	.long	.L1081
	.long	.L1078
	.long	.L1082
	.long	.L1078
	.long	.L1078
	.long	.L1078
	.long	.L1093
	.long	.L1078
	.long	.L1083
	.long	.L1078
	.long	.L1093
	.long	.L1078
	.long	.L1084
	.long	.L1078
	.long	.L1078
	.long	.L1078
	.long	.L1078
	.long	.L1078
	.long	.L1078
	.long	.L1078
	.long	.L1078
	.long	.L1078
	.long	.L1078
	.long	.L1078
	.long	.L1078
	.long	.L1078
	.long	.L1078
	.long	.L1078
	.long	.L1093
	.text
.LVL1126:
	.p2align 4,,10
	.p2align 3
.L1063:
.LBE7952:
.LBE7981:
	.loc 54 387 0
	movl	12(%esp), %eax
	cmpl	$62, %eax
	ja	.L1064
	jmp	*.L1072(,%eax,4)
	.section	.rodata
	.align 4
	.align 4
.L1072:
	.long	.L1064
	.long	.L1064
	.long	.L1071
	.long	.L1064
	.long	.L1073
	.long	.L1064
	.long	.L1074
	.long	.L1064
	.long	.L1093
	.long	.L1064
	.long	.L1076
	.long	.L1064
	.long	.L1077
	.long	.L1064
	.long	.L1093
	.long	.L1064
	.long	.L1064
	.long	.L1064
	.long	.L1064
	.long	.L1064
	.long	.L1064
	.long	.L1064
	.long	.L1064
	.long	.L1064
	.long	.L1064
	.long	.L1064
	.long	.L1064
	.long	.L1064
	.long	.L1064
	.long	.L1064
	.long	.L1093
	.long	.L1064
	.long	.L1064
	.long	.L1064
	.long	.L1064
	.long	.L1064
	.long	.L1064
	.long	.L1064
	.long	.L1064
	.long	.L1064
	.long	.L1064
	.long	.L1064
	.long	.L1064
	.long	.L1064
	.long	.L1064
	.long	.L1064
	.long	.L1087
	.long	.L1064
	.long	.L1064
	.long	.L1064
	.long	.L1064
	.long	.L1064
	.long	.L1064
	.long	.L1064
	.long	.L1064
	.long	.L1064
	.long	.L1064
	.long	.L1064
	.long	.L1064
	.long	.L1064
	.long	.L1064
	.long	.L1064
	.long	.L1093
	.text
.L1087:
	.loc 54 404 0
	movl	40(%esp), %eax
	jmp	.L1065
.L1071:
.LVL1127:
.LBB7982:
.LBB7983:
	.loc 11 2320 0
	cmpl	$2, 8(%esp)
	je	.L1090
	call	cap_untyped_cap_get_capPtr.isra.115.part.116
.LVL1128:
	.p2align 4,,10
	.p2align 3
.L1083:
.LBE7983:
.LBE7982:
.LBB7984:
.LBB7953:
.LBB7930:
.LBB7931:
	.loc 11 3287 0
	cmpl	$11, 8(%esp)
	jne	.L1115
.LVL1129:
.L1098:
.LBE7931:
.LBE7930:
	.loc 55 294 0
	movl	36(%esp), %eax
	jmp	.L1065
.L1084:
.LVL1130:
.LBB7933:
.LBB7934:
	.loc 11 3590 0
	cmpl	$15, 12(%esp)
	jne	.L1116
.LBE7934:
.LBE7933:
	.loc 55 287 0
	movl	44(%esp), %eax
	jmp	.L1065
.LVL1131:
.L1082:
.LBB7936:
.LBB7937:
	.loc 11 3227 0
	cmpl	$5, 8(%esp)
	je	.L1098
	call	cap_page_directory_cap_get_capPDBasePtr.isra.129.part.130
.LVL1132:
	.p2align 4,,10
	.p2align 3
.L1081:
.LBE7937:
.LBE7936:
.LBB7938:
.LBB7939:
	.loc 11 3123 0
	cmpl	$3, 8(%esp)
	je	.L1098
	call	cap_page_table_cap_get_capPTBasePtr.isra.127.part.128
.LVL1133:
	.p2align 4,,10
	.p2align 3
.L1079:
.LBE7939:
.LBE7938:
.LBB7940:
.LBB7941:
	.loc 11 2996 0
	cmpl	$1, 8(%esp)
	je	.L1098
	call	cap_frame_cap_get_capFBasePtr.isra.125.part.126
.LVL1134:
	.p2align 4,,10
	.p2align 3
.L1078:
.LBE7941:
.LBE7940:
.LBB7942:
.LBB7943:
	.loc 46 134 0
	pushl	$__func__.3040
	.cfi_remember_state
	.cfi_def_cfa_offset 84
	pushl	$134
	.cfi_def_cfa_offset 88
	pushl	$.LC145
	.cfi_def_cfa_offset 92
	pushl	$.LC226
	.cfi_def_cfa_offset 96
	call	_fail
.LVL1135:
.L1115:
	.cfi_restore_state
.LBE7943:
.LBE7942:
.LBB7944:
.LBB7932:
	call	cap_asid_pool_cap_get_capASIDPool.isra.134.part.135
.LVL1136:
.L1116:
.LBE7932:
.LBE7944:
.LBB7945:
.LBB7935:
	call	cap_io_page_table_cap_get_capIOPTBasePtr.isra.132.part.133
.LVL1137:
.L1109:
.LBE7935:
.LBE7945:
.LBE7953:
.LBE7984:
.LBE7991:
.LBE7999:
.LBB8000:
.LBB8001:
	.loc 20 692 0
	pushl	$__FUNCTION__.7102
	.cfi_remember_state
	.cfi_def_cfa_offset 84
.LVL1138:
	pushl	$692
	.cfi_def_cfa_offset 88
	pushl	$.LC138
	.cfi_def_cfa_offset 92
	pushl	$.LC283
	.cfi_def_cfa_offset 96
	call	_assert_fail
.LVL1139:
.L1113:
	.cfi_restore_state
.LBE8001:
.LBE8000:
.LBB8002:
.LBB7992:
.LBB7985:
.LBB7977:
	call	cap_endpoint_cap_get_capEPPtr.part.117
.LVL1140:
.L1110:
.LBE7977:
.LBE7985:
.LBB7986:
.LBB7970:
	call	cap_notification_cap_get_capNtfnPtr.isra.97.part.98
.LVL1141:
.L1114:
.LBE7970:
.LBE7986:
.LBB7987:
.LBB7980:
	call	cap_cnode_cap_get_capCNodePtr.isra.118.part.119
.LVL1142:
.L1112:
.LBE7980:
.LBE7987:
.LBB7988:
.LBB7974:
	call	cap_thread_cap_get_capTCBPtr.isra.89.part.90
.LVL1143:
.LBE7974:
.LBE7988:
.LBE7992:
.LBE8002:
	.cfi_endproc
.LFE548:
	.size	flushTable, .-flushTable
	.section	.text.unlikely
.LCOLDE284:
	.text
.LHOTE284:
	.section	.text.unlikely
.LCOLDB285:
.LHOTB285:
	.type	cap_frame_cap_set_capFMappedAddress.part.182, @function
cap_frame_cap_set_capFMappedAddress.part.182:
.LFB1077:
	.loc 11 2864 0
	.cfi_startproc
.LVL1144:
	subl	$12, %esp
	.cfi_def_cfa_offset 16
	.loc 11 2865 0
	pushl	$__FUNCTION__.2490
	.cfi_def_cfa_offset 20
	pushl	$2866
	.cfi_def_cfa_offset 24
	pushl	$.LC154
	.cfi_def_cfa_offset 28
	pushl	$.LC216
	.cfi_def_cfa_offset 32
	call	_assert_fail
.LVL1145:
	.cfi_endproc
.LFE1077:
	.size	cap_frame_cap_set_capFMappedAddress.part.182, .-cap_frame_cap_set_capFMappedAddress.part.182
.LCOLDE285:
.LHOTE285:
	.section	.rodata.str1.4
	.align 4
.LC286:
	.string	"32/mode/api/shared_types_gen.h"
	.align 4
.LC287:
	.string	"(label & ~0xfffffu) == ((0 && (label & (1u << 31))) ? 0x0 : 0)"
	.section	.text.unlikely
.LCOLDB288:
.LHOTB288:
	.type	seL4_MessageInfo_new.part.184, @function
seL4_MessageInfo_new.part.184:
.LFB1079:
	.loc 60 41 0
	.cfi_startproc
.LVL1146:
	subl	$12, %esp
	.cfi_def_cfa_offset 16
	.loc 60 45 0
	pushl	$__FUNCTION__.1119
	.cfi_def_cfa_offset 20
	pushl	$45
	.cfi_def_cfa_offset 24
	pushl	$.LC286
	.cfi_def_cfa_offset 28
	pushl	$.LC287
	.cfi_def_cfa_offset 32
	call	_assert_fail
.LVL1147:
	.cfi_endproc
.LFE1079:
	.size	seL4_MessageInfo_new.part.184, .-seL4_MessageInfo_new.part.184
.LCOLDE288:
.LHOTE288:
.LCOLDB289:
.LHOTB289:
	.type	cap_page_table_cap_get_capPTMappedASID.part.185, @function
cap_page_table_cap_get_capPTMappedASID.part.185:
.LFB1080:
	.loc 11 3069 0
	.cfi_startproc
	subl	$12, %esp
	.cfi_def_cfa_offset 16
	.loc 11 3071 0
	pushl	$__FUNCTION__.2568
	.cfi_def_cfa_offset 20
	pushl	$3072
	.cfi_def_cfa_offset 24
	pushl	$.LC154
	.cfi_def_cfa_offset 28
	pushl	$.LC218
	.cfi_def_cfa_offset 32
	call	_assert_fail
.LVL1148:
	.cfi_endproc
.LFE1080:
	.size	cap_page_table_cap_get_capPTMappedASID.part.185, .-cap_page_table_cap_get_capPTMappedASID.part.185
.LCOLDE289:
.LHOTE289:
.LCOLDB290:
	.text
.LHOTB290:
	.p2align 4,,15
	.type	cap_cnode_cap_get_capCNodeRadix.part.187, @function
cap_cnode_cap_get_capCNodeRadix.part.187:
.LFB1082:
	.loc 11 2696 0
	.cfi_startproc
	subl	$12, %esp
	.cfi_def_cfa_offset 16
	.loc 11 2698 0
	pushl	$__FUNCTION__.2428
	.cfi_def_cfa_offset 20
	pushl	$2699
	.cfi_def_cfa_offset 24
	pushl	$.LC154
	.cfi_def_cfa_offset 28
	pushl	$.LC211
	.cfi_def_cfa_offset 32
	call	_assert_fail
.LVL1149:
	.cfi_endproc
.LFE1082:
	.size	cap_cnode_cap_get_capCNodeRadix.part.187, .-cap_cnode_cap_get_capCNodeRadix.part.187
	.section	.text.unlikely
.LCOLDE290:
	.text
.LHOTE290:
	.section	.text.unlikely
.LCOLDB291:
.LHOTB291:
	.type	cap_untyped_cap_get_capIsDevice.part.188, @function
cap_untyped_cap_get_capIsDevice.part.188:
.LFB1083:
	.loc 11 2290 0
	.cfi_startproc
	subl	$12, %esp
	.cfi_def_cfa_offset 16
	.loc 11 2292 0
	pushl	$__FUNCTION__.2276
	.cfi_def_cfa_offset 20
	pushl	$2293
	.cfi_def_cfa_offset 24
	pushl	$.LC154
	.cfi_def_cfa_offset 28
	pushl	$.LC208
	.cfi_def_cfa_offset 32
	call	_assert_fail
.LVL1150:
	.cfi_endproc
.LFE1083:
	.size	cap_untyped_cap_get_capIsDevice.part.188, .-cap_untyped_cap_get_capIsDevice.part.188
.LCOLDE291:
.LHOTE291:
.LCOLDB292:
.LHOTB292:
	.type	cap_asid_pool_cap_get_capASIDBase.part.189, @function
cap_asid_pool_cap_get_capASIDBase.part.189:
.LFB1084:
	.loc 11 3271 0
	.cfi_startproc
	subl	$12, %esp
	.cfi_def_cfa_offset 16
	.loc 11 3273 0
	pushl	$__FUNCTION__.2642
	.cfi_def_cfa_offset 20
	pushl	$3274
	.cfi_def_cfa_offset 24
	pushl	$.LC154
	.cfi_def_cfa_offset 28
	pushl	$.LC224
	.cfi_def_cfa_offset 32
	call	_assert_fail
.LVL1151:
	.cfi_endproc
.LFE1084:
	.size	cap_asid_pool_cap_get_capASIDBase.part.189, .-cap_asid_pool_cap_get_capASIDBase.part.189
.LCOLDE292:
.LHOTE292:
	.section	.rodata.str1.4
	.align 4
.LC293:
	.string	"/home/axjllt/Desktop/ori_refos/kernel/src/arch/x86/machine/hardware.c"
	.section	.rodata.str1.1
.LC294:
	.string	"size_bits < seL4_WordBits"
	.section	.rodata.str1.4
	.align 4
.LC295:
	.string	"IS_ALIGNED((word_t)vaddr, size_bits)"
	.section	.text.unlikely
.LCOLDB296:
	.text
.LHOTB296:
	.p2align 4,,15
	.globl	flushCacheRange
	.type	flushCacheRange, @function
flushCacheRange:
.LFB596:
	.loc 25 75 0
	.cfi_startproc
.LVL1152:
	pushl	%esi
	.cfi_def_cfa_offset 8
	.cfi_offset 6, -8
	pushl	%ebx
	.cfi_def_cfa_offset 12
	.cfi_offset 3, -12
	subl	$4, %esp
	.cfi_def_cfa_offset 16
	.loc 25 75 0
	movl	20(%esp), %ecx
	movl	16(%esp), %edx
	.loc 25 78 0
	cmpl	$31, %ecx
	ja	.L1139
	.loc 25 79 0
	movl	$1, %ebx
	sall	%cl, %ebx
	leal	-1(%ebx), %eax
	testl	%eax, %edx
	jne	.L1140
.LBB8017:
.LBB8018:
	.loc 10 300 0
#APP
# 300 "/home/axjllt/Desktop/ori_refos/kernel/include/arch/x86/arch/machine.h" 1
	mfence
# 0 "" 2
#NO_APP
.LBE8018:
.LBE8017:
	.loc 25 83 0
	movl	x86KScacheLineSizeBits, %ecx
	movl	%edx, %eax
	.loc 25 84 0
	addl	%edx, %ebx
	.loc 25 85 0
	movl	$1, %esi
	.loc 25 83 0
	shrl	%cl, %eax
	sall	%cl, %eax
.LVL1153:
	cmpl	%ebx, %eax
	jnb	.L1134
	.p2align 4,,10
	.p2align 3
.L1135:
.LVL1154:
.LBB8019:
.LBB8020:
	.loc 59 102 0
#APP
# 102 "/home/axjllt/Desktop/ori_refos/kernel/include/arch/x86/arch/machine/hardware.h" 1
	clflush (%eax)
# 0 "" 2
.LVL1155:
#NO_APP
.LBE8020:
.LBE8019:
	.loc 25 85 0
	movl	x86KScacheLineSizeBits, %ecx
	movl	%esi, %edx
	sall	%cl, %edx
	addl	%edx, %eax
.LVL1156:
	.loc 25 83 0
	cmpl	%ebx, %eax
	jb	.L1135
.L1134:
.LBB8021:
.LBB8022:
	.loc 10 300 0
#APP
# 300 "/home/axjllt/Desktop/ori_refos/kernel/include/arch/x86/arch/machine.h" 1
	mfence
# 0 "" 2
#NO_APP
.LBE8022:
.LBE8021:
	.loc 25 89 0
	addl	$4, %esp
	.cfi_remember_state
	.cfi_def_cfa_offset 12
	popl	%ebx
	.cfi_restore 3
	.cfi_def_cfa_offset 8
	popl	%esi
	.cfi_restore 6
	.cfi_def_cfa_offset 4
	ret
.LVL1157:
.L1139:
	.cfi_restore_state
.LBB8023:
.LBB8024:
	.loc 25 78 0
	pushl	$__FUNCTION__.7543
	.cfi_remember_state
	.cfi_def_cfa_offset 20
	pushl	$78
	.cfi_def_cfa_offset 24
	pushl	$.LC293
	.cfi_def_cfa_offset 28
	pushl	$.LC294
	.cfi_def_cfa_offset 32
	call	_assert_fail
.LVL1158:
.L1140:
	.cfi_restore_state
.LBE8024:
.LBE8023:
	.loc 25 79 0 discriminator 1
	pushl	$__FUNCTION__.7543
	.cfi_def_cfa_offset 20
	pushl	$79
	.cfi_def_cfa_offset 24
	pushl	$.LC293
	.cfi_def_cfa_offset 28
	pushl	$.LC295
	.cfi_def_cfa_offset 32
	call	_assert_fail
.LVL1159:
	.cfi_endproc
.LFE596:
	.size	flushCacheRange, .-flushCacheRange
	.section	.text.unlikely
.LCOLDE296:
	.text
.LHOTE296:
	.section	.rodata.str1.4
	.align 4
.LC297:
	.string	"((cap.words[0] >> 0) & 0xff) == cap_io_port_cap"
	.section	.text.unlikely
.LCOLDB298:
.LHOTB298:
	.type	cap_io_port_cap_get_capIOPortFirstPort.part.194, @function
cap_io_port_cap_get_capIOPortFirstPort.part.194:
.LFB1089:
	.loc 11 3620 0
	.cfi_startproc
	subl	$12, %esp
	.cfi_def_cfa_offset 16
	.loc 11 3622 0
	pushl	$__FUNCTION__.2769
	.cfi_def_cfa_offset 20
	pushl	$3623
	.cfi_def_cfa_offset 24
	pushl	$.LC154
	.cfi_def_cfa_offset 28
	pushl	$.LC297
	.cfi_def_cfa_offset 32
	call	_assert_fail
.LVL1160:
	.cfi_endproc
.LFE1089:
	.size	cap_io_port_cap_get_capIOPortFirstPort.part.194, .-cap_io_port_cap_get_capIOPortFirstPort.part.194
.LCOLDE298:
.LHOTE298:
.LCOLDB299:
.LHOTB299:
	.type	cap_io_port_cap_get_capIOPortLastPort.part.195, @function
cap_io_port_cap_get_capIOPortLastPort.part.195:
.LFB1090:
	.loc 11 3634 0
	.cfi_startproc
	subl	$12, %esp
	.cfi_def_cfa_offset 16
	.loc 11 3636 0
	pushl	$__FUNCTION__.2774
	.cfi_def_cfa_offset 20
	pushl	$3637
	.cfi_def_cfa_offset 24
	pushl	$.LC154
	.cfi_def_cfa_offset 28
	pushl	$.LC297
	.cfi_def_cfa_offset 32
	call	_assert_fail
.LVL1161:
	.cfi_endproc
.LFE1090:
	.size	cap_io_port_cap_get_capIOPortLastPort.part.195, .-cap_io_port_cap_get_capIOPortLastPort.part.195
.LCOLDE299:
.LHOTE299:
	.section	.rodata.str1.4
	.align 4
.LC300:
	.string	"((cap.words[0] >> 0) & 0xf) == cap_io_space_cap"
	.section	.text.unlikely
.LCOLDB301:
.LHOTB301:
	.type	cap_io_space_cap_get_capPCIDevice.part.197, @function
cap_io_space_cap_get_capPCIDevice.part.197:
.LFB1092:
	.loc 11 3331 0
	.cfi_startproc
	subl	$12, %esp
	.cfi_def_cfa_offset 16
	.loc 11 3333 0
	pushl	$__FUNCTION__.2663
	.cfi_def_cfa_offset 20
	pushl	$3334
	.cfi_def_cfa_offset 24
	pushl	$.LC154
	.cfi_def_cfa_offset 28
	pushl	$.LC300
	.cfi_def_cfa_offset 32
	call	_assert_fail
.LVL1162:
	.cfi_endproc
.LFE1092:
	.size	cap_io_space_cap_get_capPCIDevice.part.197, .-cap_io_space_cap_get_capPCIDevice.part.197
.LCOLDE301:
.LHOTE301:
.LCOLDB302:
	.text
.LHOTB302:
	.p2align 4,,15
	.globl	Arch_sameRegionAs
	.type	Arch_sameRegionAs, @function
Arch_sameRegionAs:
.LFB626:
	.loc 28 307 0
	.cfi_startproc
.LVL1163:
	pushl	%ebp
	.cfi_def_cfa_offset 8
	.cfi_offset 5, -8
	pushl	%edi
	.cfi_def_cfa_offset 12
	.cfi_offset 7, -12
	pushl	%esi
	.cfi_def_cfa_offset 16
	.cfi_offset 6, -16
	pushl	%ebx
	.cfi_def_cfa_offset 20
	.cfi_offset 3, -20
	subl	$12, %esp
	.cfi_def_cfa_offset 32
	.loc 28 307 0
	movl	32(%esp), %ecx
	movl	36(%esp), %ebx
	movl	40(%esp), %edx
.LVL1164:
	movl	44(%esp), %esi
.LVL1165:
.LBB8089:
.LBB8090:
	.loc 11 2202 0
	movl	%ecx, %ebp
	.loc 11 2203 0
	movl	%ecx, %edi
	movzbl	%cl, %eax
.LVL1166:
	.loc 11 2202 0
	andl	$14, %ebp
	.loc 11 2203 0
	andl	$15, %edi
	cmpl	$14, %ebp
.LVL1167:
	cmovne	%edi, %eax
.LVL1168:
.LBE8090:
.LBE8089:
	.loc 28 308 0
	cmpl	$31, %eax
	ja	.L1191
	jmp	*.L1152(,%eax,4)
	.section	.rodata
	.align 4
	.align 4
.L1152:
	.long	.L1191
	.long	.L1151
	.long	.L1191
	.long	.L1153
	.long	.L1191
	.long	.L1154
	.long	.L1191
	.long	.L1191
	.long	.L1191
	.long	.L1155
	.long	.L1191
	.long	.L1156
	.long	.L1191
	.long	.L1157
	.long	.L1191
	.long	.L1158
	.long	.L1191
	.long	.L1191
	.long	.L1191
	.long	.L1191
	.long	.L1191
	.long	.L1191
	.long	.L1191
	.long	.L1191
	.long	.L1191
	.long	.L1191
	.long	.L1191
	.long	.L1191
	.long	.L1191
	.long	.L1191
	.long	.L1191
	.long	.L1159
	.text
	.p2align 4,,10
	.p2align 3
.L1159:
.LVL1169:
.LBB8091:
.LBB8092:
	.loc 11 2202 0
	movl	%edx, %edi
.LBE8092:
.LBE8091:
	.loc 28 414 0
	xorl	%eax, %eax
.LBB8094:
.LBB8093:
	.loc 11 2202 0
	andl	$14, %edi
	cmpl	$14, %edi
	je	.L1205
.LVL1170:
.L1150:
.LBE8093:
.LBE8094:
	.loc 28 415 0
	addl	$12, %esp
	.cfi_remember_state
	.cfi_def_cfa_offset 20
	popl	%ebx
	.cfi_restore 3
	.cfi_def_cfa_offset 16
	popl	%esi
	.cfi_restore 6
	.cfi_def_cfa_offset 12
.LVL1171:
	popl	%edi
	.cfi_restore 7
	.cfi_def_cfa_offset 8
	popl	%ebp
	.cfi_restore 5
	.cfi_def_cfa_offset 4
	ret
.LVL1172:
	.p2align 4,,10
	.p2align 3
.L1151:
	.cfi_restore_state
.LBB8095:
.LBB8096:
	.loc 11 2202 0
	movl	%edx, %eax
	.loc 11 2203 0
	movl	%edx, %ebp
	movzbl	%dl, %edi
.LVL1173:
	.loc 11 2202 0
	andl	$14, %eax
	.loc 11 2203 0
	andl	$15, %ebp
	cmpl	$14, %eax
	cmovne	%ebp, %edi
.LVL1174:
.LBE8096:
.LBE8095:
	.loc 28 414 0
	xorl	%eax, %eax
	.loc 28 310 0
	cmpl	$1, %edi
	jne	.L1150
.LVL1175:
.LBB8097:
.LBB8098:
.LBB8099:
	.loc 11 2996 0
	movl	%ecx, %eax
	andl	$15, %eax
	cmpl	$1, %eax
	jne	.L1163
.LVL1176:
.LBE8099:
.LBE8098:
.LBB8102:
.LBB8103:
	cmpl	$1, %ebp
	jne	.L1163
.LVL1177:
.LBE8103:
.LBE8102:
.LBB8105:
.LBB8106:
	.loc 59 57 0
	movl	$4096, %edi
	andl	$1073741824, %ebx
.LVL1178:
	movl	$4194304, %eax
	movl	%edi, %ebx
	cmovne	%eax, %ebx
.LBE8106:
.LBE8105:
.LBB8107:
.LBB8100:
	.loc 11 2999 0
	andl	$16777200, %ecx
.LVL1179:
	sall	$8, %ecx
.LBE8100:
.LBE8107:
.LBB8108:
.LBB8109:
	.loc 59 57 0
	andl	$1073741824, %esi
	cmove	%edi, %eax
.LVL1180:
.LBE8109:
.LBE8108:
.LBB8110:
.LBB8104:
	.loc 11 2999 0
	andl	$16777200, %edx
.LVL1181:
	sall	$8, %edx
.LBE8104:
.LBE8110:
	.loc 28 315 0
	leal	-1(%edx,%eax), %esi
	.loc 28 314 0
	leal	-1(%ecx,%ebx), %ebx
.LVL1182:
	.loc 28 316 0
	cmpl	%esi, %ebx
	setnb	%bl
.LVL1183:
	cmpl	%edx, %esi
	setnb	%al
	andl	%ebx, %eax
	cmpl	%ecx, %edx
	setnb	%dl
	movzbl	%dl, %edx
	andl	%edx, %eax
	jmp	.L1150
.LVL1184:
	.p2align 4,,10
	.p2align 3
.L1153:
.LBE8097:
.LBB8112:
.LBB8113:
	.loc 11 2202 0
	movl	%edx, %eax
	.loc 11 2203 0
	movl	%edx, %esi
.LVL1185:
	movzbl	%dl, %ebx
	.loc 11 2202 0
	andl	$14, %eax
	.loc 11 2203 0
	andl	$15, %esi
	cmpl	$14, %eax
	cmovne	%esi, %ebx
.LVL1186:
.LBE8113:
.LBE8112:
	.loc 28 414 0
	xorl	%eax, %eax
	.loc 28 321 0
	cmpl	$3, %ebx
	jne	.L1150
.LVL1187:
.LBB8114:
.LBB8115:
	.loc 11 3123 0
	movl	%ecx, %eax
	andl	$15, %eax
	cmpl	$3, %eax
	jne	.L1171
	.loc 11 3126 0
	andl	$16777200, %ecx
.LVL1188:
	sall	$8, %ecx
.LVL1189:
.LBE8115:
.LBE8114:
.LBB8117:
.LBB8118:
	.loc 11 3123 0
	cmpl	$3, %esi
	je	.L1204
.LVL1190:
.L1171:
.LBE8118:
.LBE8117:
.LBB8119:
.LBB8116:
	call	cap_page_table_cap_get_capPTBasePtr.isra.127.part.128
.LVL1191:
	.p2align 4,,10
	.p2align 3
.L1154:
.LBE8116:
.LBE8119:
.LBB8120:
.LBB8121:
	.loc 11 2202 0
	movl	%edx, %eax
	.loc 11 2203 0
	movl	%edx, %esi
.LVL1192:
	movzbl	%dl, %ebx
	.loc 11 2202 0
	andl	$14, %eax
	.loc 11 2203 0
	andl	$15, %esi
	cmpl	$14, %eax
	cmovne	%esi, %ebx
.LVL1193:
.LBE8121:
.LBE8120:
	.loc 28 414 0
	xorl	%eax, %eax
	.loc 28 328 0
	cmpl	$5, %ebx
	jne	.L1150
.LVL1194:
.LBB8122:
.LBB8123:
	.loc 11 3227 0
	movl	%ecx, %eax
	andl	$15, %eax
	cmpl	$5, %eax
	jne	.L1175
	.loc 11 3230 0
	andl	$16777200, %ecx
.LVL1195:
	sall	$8, %ecx
.LVL1196:
.LBE8123:
.LBE8122:
.LBB8125:
.LBB8126:
	.loc 11 3227 0
	cmpl	$5, %esi
	je	.L1204
.LVL1197:
.L1175:
.LBE8126:
.LBE8125:
.LBB8127:
.LBB8124:
	call	cap_page_directory_cap_get_capPDBasePtr.isra.129.part.130
.LVL1198:
	.p2align 4,,10
	.p2align 3
.L1155:
.LBE8124:
.LBE8127:
.LBB8128:
.LBB8129:
	.loc 11 2202 0
	movl	%edx, %ecx
	.loc 11 2203 0
	movl	%edx, %eax
	movzbl	%dl, %edx
	.loc 11 2202 0
	andl	$14, %ecx
	.loc 11 2203 0
	andl	$15, %eax
	cmpl	$14, %ecx
	cmovne	%eax, %edx
.LVL1199:
.LBE8129:
.LBE8128:
.LBB8130:
	.loc 28 316 0
	xorl	%eax, %eax
	cmpl	$9, %edx
	sete	%al
.LBE8130:
	.loc 28 415 0
	addl	$12, %esp
	.cfi_remember_state
	.cfi_def_cfa_offset 20
	popl	%ebx
	.cfi_restore 3
	.cfi_def_cfa_offset 16
	popl	%esi
	.cfi_restore 6
	.cfi_def_cfa_offset 12
	popl	%edi
	.cfi_restore 7
	.cfi_def_cfa_offset 8
	popl	%ebp
	.cfi_restore 5
	.cfi_def_cfa_offset 4
	ret
.LVL1200:
	.p2align 4,,10
	.p2align 3
.L1156:
	.cfi_restore_state
.LBB8131:
.LBB8132:
	.loc 11 2202 0
	movl	%edx, %eax
	.loc 11 2203 0
	movl	%edx, %esi
.LVL1201:
	movzbl	%dl, %ebx
	.loc 11 2202 0
	andl	$14, %eax
	.loc 11 2203 0
	andl	$15, %esi
	cmpl	$14, %eax
	cmovne	%esi, %ebx
.LVL1202:
.LBE8132:
.LBE8131:
	.loc 28 414 0
	xorl	%eax, %eax
	.loc 28 341 0
	cmpl	$11, %ebx
	jne	.L1150
.LVL1203:
.LBB8133:
.LBB8134:
	.loc 11 3287 0
	movl	%ecx, %eax
	andl	$15, %eax
	cmpl	$11, %eax
	jne	.L1181
	.loc 11 3290 0
	andl	$16777200, %ecx
.LVL1204:
	sall	$8, %ecx
.LVL1205:
.LBE8134:
.LBE8133:
.LBB8136:
.LBB8137:
	.loc 11 3287 0
	cmpl	$11, %esi
	jne	.L1181
.LVL1206:
.L1204:
.LBE8137:
.LBE8136:
	.loc 28 342 0
	andl	$16777200, %edx
	xorl	%eax, %eax
	sall	$8, %edx
	cmpl	%ecx, %edx
	sete	%al
	jmp	.L1150
.LVL1207:
	.p2align 4,,10
	.p2align 3
.L1157:
.LBB8138:
.LBB8139:
	.loc 11 2202 0
	movl	%edx, %eax
	.loc 11 2203 0
	movl	%edx, %edi
	movzbl	%dl, %edx
	.loc 11 2202 0
	andl	$14, %eax
	.loc 11 2203 0
	andl	$15, %edi
	cmpl	$14, %eax
	cmovne	%edi, %edx
.LVL1208:
.LBE8139:
.LBE8138:
	.loc 28 414 0
	xorl	%eax, %eax
	.loc 28 360 0
	cmpl	$13, %edx
	jne	.L1150
.LVL1209:
.LBB8140:
.LBB8141:
	.loc 11 3333 0
	andl	$15, %ecx
.LVL1210:
	cmpl	$13, %ecx
	jne	.L1186
	.loc 11 3336 0
	movzwl	%bx, %ebx
.LVL1211:
.LBE8141:
.LBE8140:
.LBB8143:
.LBB8144:
	.loc 11 3333 0
	cmpl	$13, %edi
	jne	.L1186
.LBE8144:
.LBE8143:
	.loc 28 361 0
	movzwl	%si, %esi
.LVL1212:
	xorl	%eax, %eax
	cmpl	%ebx, %esi
	sete	%al
	jmp	.L1150
.LVL1213:
	.p2align 4,,10
	.p2align 3
.L1158:
.LBB8145:
.LBB8146:
	.loc 11 2202 0
	movl	%edx, %eax
	.loc 11 2203 0
	movl	%edx, %ebx
	movzbl	%dl, %esi
.LVL1214:
	.loc 11 2202 0
	andl	$14, %eax
	.loc 11 2203 0
	andl	$15, %ebx
	cmpl	$14, %eax
	cmove	%esi, %ebx
.LVL1215:
.LBE8146:
.LBE8145:
	.loc 28 414 0
	xorl	%eax, %eax
	.loc 28 367 0
	cmpl	$15, %ebx
	jne	.L1150
.LVL1216:
.LBB8147:
.LBB8148:
	.loc 11 3590 0
	cmpb	$15, %cl
	jne	.L1190
	.loc 11 3593 0
	andl	$268435200, %ecx
.LVL1217:
	sall	$4, %ecx
.LVL1218:
.LBE8148:
.LBE8147:
.LBB8150:
.LBB8151:
	.loc 11 3590 0
	cmpl	$15, %esi
	jne	.L1190
.LVL1219:
.LBE8151:
.LBE8150:
	.loc 28 368 0
	andl	$268435200, %edx
	xorl	%eax, %eax
	sall	$4, %edx
	cmpl	%ecx, %edx
	sete	%al
	jmp	.L1150
.LVL1220:
	.p2align 4,,10
	.p2align 3
.L1191:
	.loc 28 414 0
	xorl	%eax, %eax
	jmp	.L1150
.LVL1221:
	.p2align 4,,10
	.p2align 3
.L1205:
	.loc 28 348 0
	cmpb	$31, %dl
	jne	.L1150
.LVL1222:
.LBB8152:
.LBB8153:
.LBB8154:
	.loc 11 3622 0
	cmpb	$31, %cl
	jne	.L1206
.LVL1223:
.LBE8154:
.LBE8153:
	.loc 28 354 0
	movl	%esi, %edx
.LVL1224:
	movl	%ebx, %eax
	shrl	$16, %edx
	shrl	$16, %eax
	cmpl	%eax, %edx
	setnb	%al
	xorl	%edx, %edx
	cmpw	%si, %bx
	setnb	%dl
	andl	%edx, %eax
	jmp	.L1150
.LVL1225:
.L1190:
.LBE8152:
.LBB8157:
.LBB8149:
	call	cap_io_page_table_cap_get_capIOPTBasePtr.isra.132.part.133
.LVL1226:
.L1181:
.LBE8149:
.LBE8157:
.LBB8158:
.LBB8135:
	call	cap_asid_pool_cap_get_capASIDPool.isra.134.part.135
.LVL1227:
.L1163:
.LBE8135:
.LBE8158:
.LBB8159:
.LBB8111:
.LBB8101:
	call	cap_frame_cap_get_capFBasePtr.isra.125.part.126
.LVL1228:
.L1186:
.LBE8101:
.LBE8111:
.LBE8159:
.LBB8160:
.LBB8142:
	call	cap_io_space_cap_get_capPCIDevice.part.197
.LVL1229:
.L1206:
.LBE8142:
.LBE8160:
.LBB8161:
.LBB8156:
.LBB8155:
	call	cap_io_port_cap_get_capIOPortFirstPort.part.194
.LVL1230:
.LBE8155:
.LBE8156:
.LBE8161:
	.cfi_endproc
.LFE626:
	.size	Arch_sameRegionAs, .-Arch_sameRegionAs
	.section	.text.unlikely
.LCOLDE302:
	.text
.LHOTE302:
	.section	.text.unlikely
.LCOLDB303:
	.text
.LHOTB303:
	.p2align 4,,15
	.globl	Arch_sameObjectAs
	.type	Arch_sameObjectAs, @function
Arch_sameObjectAs:
.LFB627:
	.loc 28 418 0
	.cfi_startproc
.LVL1231:
	pushl	%ebp
	.cfi_def_cfa_offset 8
	.cfi_offset 5, -8
	pushl	%edi
	.cfi_def_cfa_offset 12
	.cfi_offset 7, -12
	pushl	%esi
	.cfi_def_cfa_offset 16
	.cfi_offset 6, -16
	pushl	%ebx
	.cfi_def_cfa_offset 20
	.cfi_offset 3, -20
	subl	$12, %esp
	.cfi_def_cfa_offset 32
	.loc 28 418 0
	movl	32(%esp), %edx
	movl	36(%esp), %esi
	movl	40(%esp), %eax
.LVL1232:
	movl	44(%esp), %edi
.LVL1233:
.LBB8162:
.LBB8163:
	.loc 11 2202 0
	movl	%edx, %ebx
.LBE8163:
.LBE8162:
.LBB8167:
.LBB8168:
	.loc 11 2203 0
	movl	%edx, %ecx
.LBE8168:
.LBE8167:
.LBB8170:
.LBB8164:
	.loc 11 2202 0
	andl	$14, %ebx
.LBE8164:
.LBE8170:
.LBB8171:
.LBB8169:
	.loc 11 2203 0
	andl	$15, %ecx
.LBE8169:
.LBE8171:
.LBB8172:
.LBB8165:
	.loc 11 2202 0
	cmpl	$14, %ebx
	je	.L1221
.LVL1234:
.L1209:
.LBE8165:
.LBE8172:
	.loc 28 422 0
	cmpl	$1, %ecx
	je	.L1222
.L1213:
	.loc 28 430 0
	movl	%edi, 44(%esp)
	movl	%esi, 36(%esp)
	movl	%eax, 40(%esp)
	movl	%edx, 32(%esp)
	.loc 28 431 0
	addl	$12, %esp
	.cfi_remember_state
	.cfi_def_cfa_offset 20
	popl	%ebx
	.cfi_restore 3
	.cfi_def_cfa_offset 16
	popl	%esi
	.cfi_restore 6
	.cfi_def_cfa_offset 12
	popl	%edi
	.cfi_restore 7
	.cfi_def_cfa_offset 8
.LVL1235:
	popl	%ebp
	.cfi_restore 5
	.cfi_def_cfa_offset 4
	.loc 28 430 0
	jmp	Arch_sameRegionAs
.LVL1236:
	.p2align 4,,10
	.p2align 3
.L1221:
	.cfi_restore_state
.LBB8173:
.LBB8166:
	.loc 11 2204 0
	movzbl	%dl, %ecx
.LVL1237:
.LBE8166:
.LBE8173:
	.loc 28 419 0
	cmpl	$31, %ecx
	jne	.L1209
.LVL1238:
.LBB8174:
.LBB8175:
	.loc 11 2202 0
	movl	%eax, %ecx
	.loc 11 2203 0
	movl	%eax, %edx
.LVL1239:
	movzbl	%al, %eax
	.loc 11 2202 0
	andl	$14, %ecx
	.loc 11 2203 0
	andl	$15, %edx
	cmpl	$14, %ecx
	cmovne	%edx, %eax
.LVL1240:
.LBE8175:
.LBE8174:
	.loc 28 420 0
	cmpl	$31, %eax
	sete	%al
	movzbl	%al, %eax
.L1212:
	.loc 28 431 0
	addl	$12, %esp
	.cfi_remember_state
	.cfi_def_cfa_offset 20
	popl	%ebx
	.cfi_restore 3
	.cfi_def_cfa_offset 16
	popl	%esi
	.cfi_restore 6
	.cfi_def_cfa_offset 12
	popl	%edi
	.cfi_restore 7
	.cfi_def_cfa_offset 8
	popl	%ebp
	.cfi_restore 5
	.cfi_def_cfa_offset 4
	ret
.LVL1241:
	.p2align 4,,10
	.p2align 3
.L1222:
	.cfi_restore_state
.LBB8176:
.LBB8177:
	.loc 11 2202 0
	movl	%eax, %ebp
	.loc 11 2203 0
	movl	%eax, %ebx
	movzbl	%al, %ecx
.LVL1242:
	.loc 11 2202 0
	andl	$14, %ebp
	.loc 11 2203 0
	andl	$15, %ebx
	cmpl	$14, %ebp
	cmovne	%ebx, %ecx
.LVL1243:
.LBE8177:
.LBE8176:
	.loc 28 423 0
	cmpl	$1, %ecx
	jne	.L1213
.LVL1244:
.LBB8178:
.LBB8179:
	.loc 11 2996 0
	movl	%edx, %ecx
	andl	$15, %ecx
	cmpl	$1, %ecx
	jne	.L1217
	.loc 11 2999 0
	andl	$16777200, %edx
.LVL1245:
	sall	$8, %edx
.LVL1246:
.LBE8179:
.LBE8178:
.LBB8181:
.LBB8182:
	.loc 11 2996 0
	cmpl	$1, %ebx
	jne	.L1217
.LVL1247:
.LBE8182:
.LBE8181:
	.loc 28 425 0
	andl	$16777200, %eax
.LVL1248:
	sall	$8, %eax
	movl	%eax, %ecx
	xorl	%eax, %eax
	cmpl	%edx, %ecx
	jne	.L1212
.LVL1249:
	andl	$1073741824, %edi
	andl	$1073741824, %esi
.LVL1250:
	xorl	%eax, %eax
	cmpl	%edi, %esi
	sete	%al
	jmp	.L1212
.LVL1251:
.L1217:
.LBB8183:
.LBB8180:
	call	cap_frame_cap_get_capFBasePtr.isra.125.part.126
.LVL1252:
.LBE8180:
.LBE8183:
	.cfi_endproc
.LFE627:
	.size	Arch_sameObjectAs, .-Arch_sameObjectAs
	.section	.text.unlikely
.LCOLDE303:
	.text
.LHOTE303:
	.section	.rodata.str1.4
	.align 4
.LC304:
	.string	"plat/32/plat_mode/machine/hardware_gen.h"
	.align 4
.LC305:
	.string	"(did & ~0xffffu) == ((0 && (did & (1u << 31))) ? 0x0 : 0)"
	.section	.text.unlikely
.LCOLDB306:
.LHOTB306:
	.type	vtd_cte_new.part.198, @function
vtd_cte_new.part.198:
.LFB1093:
	.file 61 "plat/32/plat_mode/machine/hardware_gen.h"
	.loc 61 70 0
	.cfi_startproc
.LVL1253:
	subl	$12, %esp
	.cfi_def_cfa_offset 16
	.loc 61 74 0
	pushl	$__FUNCTION__.3657
	.cfi_def_cfa_offset 20
	pushl	$74
